 ddraw

 Timestamp is 4f66dc73 (Mon Mar 19 15:12:51 2012)

 Preferred load address is 10000000

 Start         Length     Name                   Class
 0001:00000000 0002fbf2H .text                   CODE
 0001:0002fc00 00000fc6H .text$x                 CODE
 0001:00030bd0 00000000H .text$yc                CODE
 0001:00030bd0 00000014H .text$yd                CODE
 0002:00000000 00000210H .idata$5                DATA
 0002:00000210 00000004H .CRT$XCA                DATA
 0002:00000214 00000000H .CRT$XCU                DATA
 0002:00000214 00000004H .CRT$XCZ                DATA
 0002:00000218 00000004H .CRT$XIA                DATA
 0002:0000021c 00000014H .CRT$XIC                DATA
 0002:00000230 00000004H .CRT$XIZ                DATA
 0002:00000234 00000004H .CRT$XPA                DATA
 0002:00000238 00000004H .CRT$XPX                DATA
 0002:0000023c 00000004H .CRT$XPXA               DATA
 0002:00000240 00000004H .CRT$XPZ                DATA
 0002:00000244 00000004H .CRT$XTA                DATA
 0002:00000248 00000004H .CRT$XTZ                DATA
 0002:00000250 00004838H .rdata                  DATA
 0002:00004a88 0000063cH .rdata$r                DATA
 0002:000050d0 000000f0H .rdata$sxdata           DATA
 0002:000051c0 00000004H .rtc$IAA                DATA
 0002:000051c4 00000004H .rtc$IMZ                DATA
 0002:000051c8 00000004H .rtc$IZZ                DATA
 0002:000051cc 00000004H .rtc$TAA                DATA
 0002:000051d0 00000004H .rtc$TMZ                DATA
 0002:000051d4 00000004H .rtc$TZZ                DATA
 0002:000051d8 00001714H .xdata$x                DATA
 0002:000068ec 00000064H .idata$2                DATA
 0002:00006950 00000014H .idata$3                DATA
 0002:00006964 00000210H .idata$4                DATA
 0002:00006b74 00000926H .idata$6                DATA
 0002:000074a0 0000004dH .edata                  DATA
 0003:00000000 00003a58H .data                   DATA
 0003:00003a60 000020a0H .bss                    DATA
 0004:00000000 00000310H .rsrc$01                DATA
 0004:00000310 0001d7a8H .rsrc$02                DATA

  Address         Publics by Value              Rva+Base       Lib:Object

 0000:00000000       __except_list              00000000     <absolute>
 0000:0000003c       ___safe_se_handler_count   0000003c     <absolute>
 0000:00000000       ___ImageBase               10000000     <linker-defined>
 0001:00000000       ?AddtionInit@@YGHPAUtagInlineX86StackBuffer@@@Z 10001000 f   ddraw.obj
 0001:00000190       ?AddtionRelease@@YGXXZ     10001190 f   ddraw.obj
 0001:00000300       _DllMain@12                10001300 f   ddraw.obj
 0001:00000440       ?GetSysDir@@YGXXZ          10001440 f   ddraw.obj
 0001:000004b0       ?DirectDrawCreate@@YGJPAU_GUID@@PAPAUIDirectDraw@@PAUIUnknown@@@Z 100014b0 f   ddraw.obj
 0001:000005a0       ?SetupFileMap@@YG_NXZ      100015a0 f   ddraw.obj
 0001:00000620       ?SetupLocalFileMap@@YG_NXZ 10001620 f   ddraw.obj
 0001:000006b0       ?ShutdownLocalFileMap@@YGXXZ 100016b0 f   ddraw.obj
 0001:000006e0       ?SetupTAHookFileMap@@YGXXZ 100016e0 f   ddraw.obj
 0001:00000740       ?ShutDownTAHookFileMap@@YGXXZ 10001740 f   ddraw.obj
 0001:00000770       ?EnableSound@@YGXXZ        10001770 f   ddraw.obj
 0001:000007a0       ??0ExternQuickKey@@QAE@XZ  100017a0 f   ExternQuickKey.obj
 0001:00000810       ??1ExternQuickKey@@QAE@XZ  10001810 f   ExternQuickKey.obj
 0001:00000860       ?Message@ExternQuickKey@@QAE_NPAUHWND__@@IIJ@Z 10001860 f   ExternQuickKey.obj
 0001:000009e0       ?SelectOnlyInScreenSameTypeUnit@ExternQuickKey@@AAEHH@Z 100019e0 f   ExternQuickKey.obj
 0001:00000c00       ?SelectOnlyInScreenWeaponUnit@ExternQuickKey@@AAEHI@Z 10001c00 f   ExternQuickKey.obj
 0001:00000d50       ?SetIDMaskInTypeAry@ExternQuickKey@@AAE_NGQAK@Z 10001d50 f   ExternQuickKey.obj
 0001:00000da0       ?MatchInTypeAry@ExternQuickKey@@AAE_NGQAK@Z 10001da0 f   ExternQuickKey.obj
 0001:00000de0       ?FilterSelectedUnit@ExternQuickKey@@QAEHW4TAUnitType@@@Z 10001de0 f   ExternQuickKey.obj
 0001:00001120       ?AddtionRoutine_CircleSelect@@YGHPAUtagInlineX86StackBuffer@@@Z 10002120 f   ExternQuickKey.obj
 0001:00001260       ?CreateSurfByGafFrame@@YGPAUIDirectDrawSurface@@PAU_GAFFrame@@_N@Z 10002260 f   gaf.obj
 0001:000013e0       ?ViewPlayerLos_Replay@@YGHH@Z 100023e0 f   HardCodeFunctions.obj
 0001:00001560       ?UpdateTAProcess@@YGHXZ    10002560 f   HardCodeFunctions.obj
 0001:000015a0       ?GetUnitIDMaskAryByCategory@@YGPAKPAD@Z 100025a0 f   HardCodeFunctions.obj
 0001:00001630       ?freeTAMem@@YGXPAX@Z       10002630 f   HardCodeFunctions.obj
 0001:000016b0       ?UpdateSelectUnitEffect@@YGXXZ 100026b0 f   HardCodeFunctions.obj
 0001:000016f0       ?ApplySelectUnitMenu_Wapper@@YGXXZ 100026f0 f   HardCodeFunctions.obj
 0001:00001720       ?DeselectUnits@@YGXXZ      10002720 f   HardCodeFunctions.obj
 0001:000017a0       ??0ModifyHook@@QAE@IHKPAEKK@Z 100027a0 f   ModifyHook.obj
 0001:000017a0       ??0ModifyHook@@QAE@PAEHK0KK@Z 100027a0 f   ModifyHook.obj
 0001:00001860       ??1ModifyHook@@QAE@XZ      10002860 f   ModifyHook.obj
 0001:00001930       ?InitHookClass@ModifyHook@@AAEXPAEHK0KK@Z 10002930 f   ModifyHook.obj
 0001:00001b90       ?Hook@ModifyHook@@UAEXXZ   10002b90 f   ModifyHook.obj
 0001:00001cb0       ??0_TAHPI@@QAE@H@Z         10002cb0 f   HPIfunc.obj
 0001:00001cd0       ?readfile@_TAHPI@@QAEPADPADPAI@Z 10002cd0 f   HPIfunc.obj
 0001:00001cf0       ?free_readfile@_TAHPI@@QAEXPAD@Z 10002cf0 f   HPIfunc.obj
 0001:00001d10       ??0IDDraw@@QAE@PAUIDirectDraw@@_N@Z 10002d10 f   iddraw.obj
 0001:00001db0       ?QueryInterface@IDDraw@@UAGJABU_GUID@@PAPAX@Z 10002db0 f   iddraw.obj
 0001:00001de0       ?AddRef@IDDraw@@UAGKXZ     10002de0 f   iddraw.obj
 0001:00001e10       ?Release@IDDraw@@UAGKXZ    10002e10 f   iddraw.obj
 0001:00001e60       ?Compact@IDDraw@@UAGJXZ    10002e60 f   iddraw.obj
 0001:00001e90       ?CreateClipper@IDDraw@@UAGJKPAPAUIDirectDrawClipper@@PAUIUnknown@@@Z 10002e90 f   iddraw.obj
 0001:00001ed0       ?CreatePalette@IDDraw@@UAGJKPAUtagPALETTEENTRY@@PAPAUIDirectDrawPalette@@PAUIUnknown@@@Z 10002ed0 f   iddraw.obj
 0001:00001f10       ?CreateSurface@IDDraw@@UAGJPAU_DDSURFACEDESC@@PAPAUIDirectDrawSurface@@PAUIUnknown@@@Z 10002f10 f   iddraw.obj
 0001:00001ff0       ?DuplicateSurface@IDDraw@@UAGJPAUIDirectDrawSurface@@PAPAU2@@Z 10002ff0 f   iddraw.obj
 0001:00002020       ?EnumDisplayModes@IDDraw@@UAGJKPAU_DDSURFACEDESC@@PAXP6GJ01@Z@Z 10003020 f   iddraw.obj
 0001:00002060       ?EnumSurfaces@IDDraw@@UAGJKPAU_DDSURFACEDESC@@PAXP6GJPAUIDirectDrawSurface@@01@Z@Z 10003060 f   iddraw.obj
 0001:000020a0       ?FlipToGDISurface@IDDraw@@UAGJXZ 100030a0 f   iddraw.obj
 0001:000020d0       ?GetCaps@IDDraw@@UAGJPAU_DDCAPS_DX7@@0@Z 100030d0 f   iddraw.obj
 0001:00002100       ?GetDisplayMode@IDDraw@@UAGJPAU_DDSURFACEDESC@@@Z 10003100 f   iddraw.obj
 0001:00002130       ?GetFourCCCodes@IDDraw@@UAGJPAK0@Z 10003130 f   iddraw.obj
 0001:00002160       ?GetGDISurface@IDDraw@@UAGJPAPAUIDirectDrawSurface@@@Z 10003160 f   iddraw.obj
 0001:00002190       ?GetMonitorFrequency@IDDraw@@UAGJPAK@Z 10003190 f   iddraw.obj
 0001:000021c0       ?GetScanLine@IDDraw@@UAGJPAK@Z 100031c0 f   iddraw.obj
 0001:000021f0       ?GetVerticalBlankStatus@IDDraw@@UAGJPAH@Z 100031f0 f   iddraw.obj
 0001:00002220       ?Initialize@IDDraw@@UAGJPAU_GUID@@@Z 10003220 f   iddraw.obj
 0001:00002250       ?RestoreDisplayMode@IDDraw@@UAGJXZ 10003250 f   iddraw.obj
 0001:00002280       ?SetCooperativeLevel@IDDraw@@UAGJPAUHWND__@@K@Z 10003280 f   iddraw.obj
 0001:000022e0       ?SetDisplayMode@IDDraw@@UAGJKKK@Z 100032e0 f   iddraw.obj
 0001:00002350       ?WaitForVerticalBlank@IDDraw@@UAGJKPAX@Z 10003350 f   iddraw.obj
 0001:00002380       ??0IDDrawSurface@@QAE@PAUIDirectDrawSurface@@_NHH@Z 10003380 f   iddrawsurface.obj
 0001:00002810       ?QueryInterface@IDDrawSurface@@UAGJABU_GUID@@PAPAX@Z 10003810 f   iddrawsurface.obj
 0001:00002840       ?AddRef@IDDrawSurface@@UAGKXZ 10003840 f   iddrawsurface.obj
 0001:00002870       ?Release@IDDrawSurface@@UAGKXZ 10003870 f   iddrawsurface.obj
 0001:00002bd0       ?AddOverlayDirtyRect@IDDrawSurface@@UAGJPAUtagRECT@@@Z 10003bd0 f   iddrawsurface.obj
 0001:00002c00       ?AddAttachedSurface@IDDrawSurface@@UAGJPAUIDirectDrawSurface@@@Z 10003c00 f   iddrawsurface.obj
 0001:00002c30       ?Blt@IDDrawSurface@@UAGJPAUtagRECT@@PAUIDirectDrawSurface@@0KPAU_DDBLTFX@@@Z 10003c30 f   iddrawsurface.obj
 0001:00002c70       ?BltBatch@IDDrawSurface@@UAGJPAU_DDBLTBATCH@@KK@Z 10003c70 f   iddrawsurface.obj
 0001:00002cb0       ?BltFast@IDDrawSurface@@UAGJKKPAUIDirectDrawSurface@@PAUtagRECT@@K@Z 10003cb0 f   iddrawsurface.obj
 0001:00002cf0       ?DeleteAttachedSurface@IDDrawSurface@@UAGJKPAUIDirectDrawSurface@@@Z 10003cf0 f   iddrawsurface.obj
 0001:00002d20       ?EnumAttachedSurfaces@IDDrawSurface@@UAGJPAXP6GJPAUIDirectDrawSurface@@PAU_DDSURFACEDESC@@0@Z@Z 10003d20 f   iddrawsurface.obj
 0001:00002d50       ?EnumOverlayZOrders@IDDrawSurface@@UAGJKPAXP6GJPAUIDirectDrawSurface@@PAU_DDSURFACEDESC@@0@Z@Z 10003d50 f   iddrawsurface.obj
 0001:00002d90       ?Flip@IDDrawSurface@@UAGJPAUIDirectDrawSurface@@K@Z 10003d90 f   iddrawsurface.obj
 0001:00002dc0       ?GetAttachedSurface@IDDrawSurface@@UAGJPAU_DDSCAPS@@PAPAUIDirectDrawSurface@@@Z 10003dc0 f   iddrawsurface.obj
 0001:00002e20       ?GetBltStatus@IDDrawSurface@@UAGJK@Z 10003e20 f   iddrawsurface.obj
 0001:00002e50       ?GetCaps@IDDrawSurface@@UAGJPAU_DDSCAPS@@@Z 10003e50 f   iddrawsurface.obj
 0001:00002e80       ?GetClipper@IDDrawSurface@@UAGJPAPAUIDirectDrawClipper@@@Z 10003e80 f   iddrawsurface.obj
 0001:00002eb0       ?GetColorKey@IDDrawSurface@@UAGJKPAU_DDCOLORKEY@@@Z 10003eb0 f   iddrawsurface.obj
 0001:00002ee0       ?GetDC@IDDrawSurface@@UAGJPAPAUHDC__@@@Z 10003ee0 f   iddrawsurface.obj
 0001:00002f10       ?GetFlipStatus@IDDrawSurface@@UAGJK@Z 10003f10 f   iddrawsurface.obj
 0001:00002f40       ?GetOverlayPosition@IDDrawSurface@@UAGJPAJ0@Z 10003f40 f   iddrawsurface.obj
 0001:00002f70       ?GetPalette@IDDrawSurface@@UAGJPAPAUIDirectDrawPalette@@@Z 10003f70 f   iddrawsurface.obj
 0001:00002fa0       ?GetPixelFormat@IDDrawSurface@@UAGJPAU_DDPIXELFORMAT@@@Z 10003fa0 f   iddrawsurface.obj
 0001:00002fd0       ?GetSurfaceDesc@IDDrawSurface@@UAGJPAU_DDSURFACEDESC@@@Z 10003fd0 f   iddrawsurface.obj
 0001:00003000       ?Initialize@IDDrawSurface@@UAGJPAUIDirectDraw@@PAU_DDSURFACEDESC@@@Z 10004000 f   iddrawsurface.obj
 0001:00003030       ?IsLost@IDDrawSurface@@UAGJXZ 10004030 f   iddrawsurface.obj
 0001:00003060       ?Lock@IDDrawSurface@@UAGJPAUtagRECT@@PAU_DDSURFACEDESC@@KPAX@Z 10004060 f   iddrawsurface.obj
 0001:000030d0       ?ReleaseDC@IDDrawSurface@@UAGJPAUHDC__@@@Z 100040d0 f   iddrawsurface.obj
 0001:00003100       ?Restore@IDDrawSurface@@UAGJXZ 10004100 f   iddrawsurface.obj
 0001:00003130       ?SetClipper@IDDrawSurface@@UAGJPAUIDirectDrawClipper@@@Z 10004130 f   iddrawsurface.obj
 0001:00003160       ?SetColorKey@IDDrawSurface@@UAGJKPAU_DDCOLORKEY@@@Z 10004160 f   iddrawsurface.obj
 0001:00003190       ?SetOverlayPosition@IDDrawSurface@@UAGJJJ@Z 10004190 f   iddrawsurface.obj
 0001:000031c0       ?SetPalette@IDDrawSurface@@UAGJPAUIDirectDrawPalette@@@Z 100041c0 f   iddrawsurface.obj
 0001:00003200       ?Unlock@IDDrawSurface@@UAGJPAX@Z 10004200 f   iddrawsurface.obj
 0001:00003550       ?UpdateOverlay@IDDrawSurface@@UAGJPAUtagRECT@@PAUIDirectDrawSurface@@0KPAU_DDOVERLAYFX@@@Z 10004550 f   iddrawsurface.obj
 0001:00003590       ?UpdateOverlayDisplay@IDDrawSurface@@UAGJK@Z 10004590 f   iddrawsurface.obj
 0001:000035c0       ?UpdateOverlayZOrder@IDDrawSurface@@UAGJKPAUIDirectDrawSurface@@@Z 100045c0 f   iddrawsurface.obj
 0001:000035f0       ?OutptInt@IDDrawSurface@@SGXH@Z 100045f0 f   iddrawsurface.obj
 0001:000035f0       ?OutptTxt@IDDrawSurface@@SGXPAD@Z 100045f0 f   iddrawsurface.obj
 0001:00003600       ?ReplaceTAProc@IDDrawSurface@@AAEXXZ 10004600 f   iddrawsurface.obj
 0001:00003630       ?Set@IDDrawSurface@@QAEX_N@Z 10004630 f   iddrawsurface.obj
 0001:00003650       ?CreateClipplist@IDDrawSurface@@QAEXXZ 10004650 f   iddrawsurface.obj
 0001:00003830       ?ScreenShot@IDDrawSurface@@QAEXXZ 10004830 f   iddrawsurface.obj
 0001:00003ab0       ?CreateFileName@IDDrawSurface@@AAEXPADH@Z 10004ab0 f   iddrawsurface.obj
 0001:00003d30       ?CreateDir@IDDrawSurface@@QAEXPAD@Z 10004d30 f   iddrawsurface.obj
 0001:00003df0       ?CorrectName@IDDrawSurface@@QAEXPAD@Z 10004df0 f   iddrawsurface.obj
 0001:00003e50       ?DeInterlace@IDDrawSurface@@AAEXXZ 10004e50 f   iddrawsurface.obj
 0001:00003f00       ?WinProc@@YGJPAUHWND__@@IIJ@Z 10004f00 f   iddrawsurface.obj
 0001:000042b0       ??0ModifyWeaponPacket@@QAE@H@Z 100052b0 f   MultiGameWeaponID.obj
 0001:000042f0       ?ModifyRoutine@ModifyWeaponPacket@@AAEXH@Z 100052f0 f   MultiGameWeaponID.obj
 0001:00004400       ?EnsureDplayx@ModifyWeaponPacket@@AAEXH@Z 10005400 f   MultiGameWeaponID.obj
 0001:000049c0       ?FeaturePacket@ModifyWeaponPacket@@AAEXH@Z 100059c0 f   MultiGameWeaponID.obj
 0001:00004b80       ??1ModifyWeaponPacket@@QAE@XZ 10005b80 f   MultiGameWeaponID.obj
 0001:00004dc0       ??0CDDDTA@@QAE@XZ          10005dc0 f   dddta.obj
 0001:00004eb0       ??1CDDDTA@@QAE@XZ          10005eb0 f   dddta.obj
 0001:00004f40       ?DeInitDDDTA@CDDDTA@@QAEXXZ 10005f40 f   dddta.obj
 0001:00004fe0       ?Blit@CDDDTA@@QAEXPAUIDirectDrawSurface@@@Z 10005fe0 f   dddta.obj
 0001:00005130       ?InitDDDTA@CDDDTA@@AAEXXZ  10006130 f   dddta.obj
 0001:000054d0       ?Message@CDDDTA@@QAE_NPAUHWND__@@IIJ@Z 100064d0 f   dddta.obj
 0001:000055a0       ?FrameUpdate@CDDDTA@@QAEXXZ 100065a0 f   dddta.obj
 0001:000056f0       ?WriteUnits@CDDDTA@@AAEXXZ 100066f0 f   dddta.obj
 0001:00005800       ?WriteProjectiles@CDDDTA@@AAEXXZ 10006800 f   dddta.obj
 0001:00005a00       ?WriteExplosion@CDDDTA@@AAEXXZ 10006a00 f   dddta.obj
 0001:00005d70       ?WriteSmoke@CDDDTA@@AAEXXZ 10006d70 f   dddta.obj
 0001:00006010       ?SetActiveUnit@CDDDTA@@AAEXPAUOwnUnitBegin@@PAUUnitStruct@@@Z 10007010 f i dddta.obj
 0001:00006110       ?WriteSubPart@CDDDTA@@AAEXPAUSubPart@@PAUPrimitiveStruct@@@Z 10007110 f   dddta.obj
 0001:00006210       ?CheckMessages@CDDDTA@@AAEXXZ 10007210 f   dddta.obj
 0001:00006360       ?CreateSharedTAMem@CDDDTA@@AAEXHHPAD@Z 10007360 f   dddta.obj
 0001:00006490       ?RestoreAllSharedTAMem@CDDDTA@@AAEXXZ 10007490 f   dddta.obj
 0001:000067f0       ?SendTextToSpring@CDDDTA@@QAEXPBD@Z 100077f0 f   dddta.obj
 0001:00006890       ?ChatStrnCpy@@YAPADPADPBDI@Z 10007890 f   dddta.obj
 0001:000068d0       ?DeleteMem@@YAXPAX@Z       100078d0 f   dddta.obj
 0001:00006900       ??1?$deque@UTAShareMemStruct@CDDDTA@@V?$allocator@UTAShareMemStruct@CDDDTA@@@std@@@std@@QAE@XZ 10007900 f i dddta.obj
 0001:00006980       ?push_front@?$deque@UTAShareMemStruct@CDDDTA@@V?$allocator@UTAShareMemStruct@CDDDTA@@@std@@@std@@QAEXABUTAShareMemStruct@CDDDTA@@@Z 10007980 f i dddta.obj
 0001:00006aa0       ?_Growmap@?$deque@UTAShareMemStruct@CDDDTA@@V?$allocator@UTAShareMemStruct@CDDDTA@@@std@@@std@@IAEXI@Z 10007aa0 f i dddta.obj
 0001:00006e40       ?_Tidy@?$deque@UTAShareMemStruct@CDDDTA@@V?$allocator@UTAShareMemStruct@CDDDTA@@@std@@@std@@IAEXXZ 10007e40 f i dddta.obj
 0001:00006f10       ??0?$_Deque_val@PAVGraphicElement@@V?$allocator@PAVGraphicElement@@@std@@@std@@QAE@V?$allocator@PAVGraphicElement@@@1@@Z 10007f10 f i whiteboard.obj
 0001:00006f10       ??0?$_Deque_val@UTAShareMemStruct@CDDDTA@@V?$allocator@UTAShareMemStruct@CDDDTA@@@std@@@std@@QAE@V?$allocator@UTAShareMemStruct@CDDDTA@@@1@@Z 10007f10 f i dddta.obj
 0001:00006f10       ??0?$_Deque_val@UMMHS@AlliesWhiteboard@@V?$allocator@UMMHS@AlliesWhiteboard@@@std@@@std@@QAE@V?$allocator@UMMHS@AlliesWhiteboard@@@1@@Z 10007f10 f i whiteboard.obj
 0001:00006fd0       ?pop_back@?$deque@UTAShareMemStruct@CDDDTA@@V?$allocator@UTAShareMemStruct@CDDDTA@@@std@@@std@@QAEXXZ 10007fd0 f i dddta.obj
 0001:00007080       ??D?$_Deque_const_iterator@UTAShareMemStruct@CDDDTA@@V?$allocator@UTAShareMemStruct@CDDDTA@@@std@@@std@@QBEABUTAShareMemStruct@CDDDTA@@XZ 10008080 f i dddta.obj
 0001:00007100       ??$_Cons_val@V?$allocator@UTAShareMemStruct@CDDDTA@@@std@@UTAShareMemStruct@CDDDTA@@ABU34@@std@@YGXAAV?$allocator@UTAShareMemStruct@CDDDTA@@@0@PAUTAShareMemStruct@CDDDTA@@ABU23@@Z 10008100 f i dddta.obj
 0001:00007160       ??$_Cons_val@V?$allocator@U_Container_proxy@std@@@std@@U_Container_proxy@2@U32@@std@@YGXAAV?$allocator@U_Container_proxy@std@@@0@PAU_Container_proxy@0@$$QAU20@@Z 10008160 f i dddta.obj
 0001:000071a0       ??$_Allocate@UTAShareMemStruct@CDDDTA@@@std@@YGPAUTAShareMemStruct@CDDDTA@@IPAU12@@Z 100081a0 f i dddta.obj
 0001:00007210       ??1bad_alloc@std@@UAE@XZ   10008210 f i dddta.obj
 0001:00007230       ??_Ebad_alloc@std@@UAEPAXI@Z 10008230 f i dddta.obj
 0001:00007230       ??_Gbad_alloc@std@@UAEPAXI@Z 10008230 f i dddta.obj
 0001:00007270       ??$_Allocate@U_Container_proxy@std@@@std@@YGPAU_Container_proxy@0@IPAU10@@Z 10008270 f i dddta.obj
 0001:000072e0       ??0bad_alloc@std@@QAE@ABV01@@Z 100082e0 f i dddta.obj
 0001:00007310       ??0CChangeQueue@@QAE@XZ    10008310 f   changequeue.obj
 0001:00007350       ??0CIncome@@QAE@XZ         10008350 f   cinomce.obj
 0001:00007410       ??1CIncome@@QAE@XZ         10008410 f   cinomce.obj
 0001:00007440       ?BlitIncome@CIncome@@QAEXPAUIDirectDrawSurface@@@Z 10008440 f   cinomce.obj
 0001:00007740       ?ShowAllIncome@CIncome@@AAEHXZ 10008740 f   cinomce.obj
 0001:00007830       ?ShowAllyIncome@CIncome@@AAEHXZ 10008830 f   cinomce.obj
 0001:00007900       ?ShowMyViewIncome@CIncome@@AAEXHH@Z 10008900 f   cinomce.obj
 0001:000079d0       ?ShowPlayerIncome@CIncome@@AAEXHHH@Z 100089d0 f   cinomce.obj
 0001:00007cd0       ?DrawStorageText@CIncome@@AAEHMHH@Z 10008cd0 f   cinomce.obj
 0001:00007de0       ?DrawTextA@CIncome@@AAEXPADHHD@Z 10008de0 f   cinomce.obj
 0001:00007f40       ?PaintStoragebar@CIncome@@AAEXHHHH@Z 10008f40 f   cinomce.obj
 0001:00008110       ?FillRect@CIncome@@AAEXD@Z 10009110 f   cinomce.obj
 0001:00008180       ?Set@CIncome@@QAEXH@Z      10009180 f   cinomce.obj
 0001:000081a0       ?ReadPos@CIncome@@AAEXXZ   100091a0 f   cinomce.obj
 0001:00008250       ?WritePos@CIncome@@AAEXXZ  10009250 f   cinomce.obj
 0001:000082d0       ?Message@CIncome@@QAE_NPAUHWND__@@IIJ@Z 100092d0 f   cinomce.obj
 0001:00008800       ?CorrectPos@CIncome@@AAEXXZ 10009800 f   cinomce.obj
 0001:00008890       ?GetPlayerColor@CIncome@@AAEEH@Z 10009890 f   cinomce.obj
 0001:00008920       ?DrawPlayerRect@CIncome@@AAEXHHD@Z 10009920 f   cinomce.obj
 0001:00008980       ??$sprintf_s@$0GE@@@YAHAAY0GE@DPBDZZ 10009980 f i cinomce.obj
 0001:000089b0       ??0CWarp@@QAE@XZ           100099b0 f   commanderwarp.obj
 0001:00008a40       ??1CWarp@@QAE@XZ           10009a40 f   commanderwarp.obj
 0001:00008a70       ?SetPos@CWarp@@AAEXHH@Z    10009a70 f   commanderwarp.obj
 0001:00008ad0       ?Message@CWarp@@QAE_NPAUHWND__@@IIJ@Z 10009ad0 f   commanderwarp.obj
 0001:00008d30       ?Blit@CWarp@@QAEXPAUIDirectDrawSurface@@@Z 10009d30 f   commanderwarp.obj
 0001:00008e60       ?WithinButton@CWarp@@AAE_NHH@Z 10009e60 f   commanderwarp.obj
 0001:00008eb0       ?BlitBtn@CWarp@@AAEXPAUIDirectDrawSurface@@@Z 10009eb0 f   commanderwarp.obj
 0001:00008fc0       ??0Dialog@@QAE@XZ          10009fc0 f   dialog.obj
 0001:00009340       ??1Dialog@@QAE@XZ          1000a340 f   dialog.obj
 0001:00009560       ?ShowDialog@Dialog@@QAEXXZ 1000a560 f   dialog.obj
 0001:000095b0       ?HideDialog@Dialog@@QAEXXZ 1000a5b0 f   dialog.obj
 0001:000095e0       ?BlitDialog@Dialog@@QAEXPAUIDirectDrawSurface@@@Z 1000a5e0 f   dialog.obj
 0001:000096f0       ?RestoreCursor@Dialog@@AAEXXZ 1000a6f0 f   dialog.obj
 0001:00009790       ?RestoreAll@Dialog@@AAEXXZ 1000a790 f   dialog.obj
 0001:00009920       ?Message@Dialog@@QAE_NPAUHWND__@@IIJ@Z 1000a920 f   dialog.obj
 0001:0000a790       ?RenderDialog@Dialog@@AAEXXZ 1000b790 f   dialog.obj
 0001:0000a8e0       ?Inside@Dialog@@AAE_NHHH@Z 1000b8e0 f   dialog.obj
 0001:0000ab20       ?DrawTextA@Dialog@@QAEXPAUIDirectDrawSurface@@HHPAD@Z 1000bb20 f   dialog.obj
 0001:0000ade0       ?DrawSmallText@Dialog@@QAEXPAUIDirectDrawSurface@@HHPAD@Z 1000bde0 f   dialog.obj
 0001:0000b0a0       ?SetAll@Dialog@@AAEXXZ     1000c0a0 f   dialog.obj
 0001:0000b160       ?ReadPos@Dialog@@AAEXXZ    1000c160 f   dialog.obj
 0001:0000b1f0       ?WriteSettings@Dialog@@AAEXXZ 1000c1f0 f   dialog.obj
 0001:0000b340       ?ReadSettings@Dialog@@AAEXXZ 1000c340 f   dialog.obj
 0001:0000b560       ?WritePos@Dialog@@AAEXXZ   1000c560 f   dialog.obj
 0001:0000b5e0       ?CorrectPos@Dialog@@AAEXXZ 1000c5e0 f   dialog.obj
 0001:0000b670       ?DrawTinyText@Dialog@@AAEXPADHHD@Z 1000c670 f   dialog.obj
 0001:0000b760       ?FillRect@Dialog@@AAEXHHHHD@Z 1000c760 f   dialog.obj
 0001:0000b7d0       ?DrawBackgroundButton@Dialog@@AAEXXZ 1000c7d0 f   dialog.obj
 0001:0000b960       ?DrawKeyCode@Dialog@@AAEXXZ 1000c960 f   dialog.obj
 0001:0000bab0       ?DrawShareBox@Dialog@@AAEXXZ 1000cab0 f   dialog.obj
 0001:0000bdd0       ?DrawOptimizeDT@Dialog@@AAEXXZ 1000cdd0 f   dialog.obj
 0001:0000beb0       ?DrawVSync@Dialog@@AAEXXZ  1000ceb0 f   dialog.obj
 0001:0000c030       ?DrawFullRings@Dialog@@AAEXXZ 1000d030 f   dialog.obj
 0001:0000c110       ?DrawWhiteboardKey@Dialog@@AAEXXZ 1000d110 f   dialog.obj
 0001:0000c260       ?BlitCursor@Dialog@@QAEXPAUIDirectDrawSurface@@HH@Z 1000d260 f   dialog.obj
 0001:0000c3e0       ?EnterOption@@YGHPAUtagInlineX86StackBuffer@@@Z 1000d3e0 f   dialog.obj
 0001:0000c400       ?PressInOption@@YGHPAUtagInlineX86StackBuffer@@@Z 1000d400 f   dialog.obj
 0001:0000c420       ??0CIdleUnits@@QAE@XZ      1000d420 f   idlevillager.obj
 0001:0000c460       ??1CIdleUnits@@QAE@XZ      1000d460 f   idlevillager.obj
 0001:0000c480       ?FindIdleConst@CIdleUnits@@AAEXXZ 1000d480 f   idlevillager.obj
 0001:0000c6b0       ?Message@CIdleUnits@@QAE_NPAUHWND__@@IIJ@Z 1000d6b0 f   idlevillager.obj
 0001:0000c790       ??0CMapRect@@QAE@XZ        1000d790 f   maprect.obj
 0001:0000cbe0       ??1CMapRect@@QAE@XZ        1000dbe0 f   maprect.obj
 0001:0000cc10       ?LockBlit@CMapRect@@QAEXPADH@Z 1000dc10 f   maprect.obj
 0001:0000cf90       ?GetMapMaxX@CMapRect@@AAEHXZ 1000df90 f   maprect.obj
 0001:0000cfb0       ?GetMapMaxY@CMapRect@@AAEHXZ 1000dfb0 f   maprect.obj
 0001:0000cfd0       ?PaintRect@CMapRect@@AAEXXZ 1000dfd0 f   maprect.obj
 0001:0000d1d0       ?WorldToMiniX@CMapRect@@QAEHH@Z 1000e1d0 f   maprect.obj
 0001:0000d200       ?WorldToMiniY@CMapRect@@QAEHH@Z 1000e200 f   maprect.obj
 0001:0000d230       ??0CMinimapHandler@@QAE@XZ 1000e230 f   MinimapHandler.obj
 0001:0000d270       ??_ECMinimapHandler@@UAEPAXI@Z 1000e270 f i MinimapHandler.obj
 0001:0000d270       ??_GCMinimapHandler@@UAEPAXI@Z 1000e270 f i MinimapHandler.obj
 0001:0000d2a0       ??1CMinimapHandler@@UAE@XZ 1000e2a0 f   MinimapHandler.obj
 0001:0000d2c0       ??0TADRConfig@@QAE@XZ      1000e2c0 f   TAConfig.obj
 0001:0000d630       ??1TADRConfig@@QAE@XZ      1000e630 f   TAConfig.obj
 0001:0000d800       ?GetIniBool@TADRConfig@@QAEHPBDH@Z 1000e800 f   TAConfig.obj
 0001:0000d8b0       ?GetIniInt@TADRConfig@@QAEHPBDH@Z 1000e8b0 f   TAConfig.obj
 0001:0000d8e0       ?GetIniStr@TADRConfig@@QAEHPBDPADK1@Z 1000e8e0 f   TAConfig.obj
 0001:0000d910       ?TARegPath_HKEY@TADRConfig@@AAEPAUHKEY__@@XZ 1000e910 f   TAConfig.obj
 0001:0000d970       ?WriteTAReg_Dword@TADRConfig@@QAEJPADK@Z 1000e970 f   TAConfig.obj
 0001:0000d9b0       ?WriteTAReg_Str@TADRConfig@@QAEJPADPBDK@Z 1000e9b0 f   TAConfig.obj
 0001:0000da00       ?LoadIniRegSetting@TADRConfig@@AAEXPAE@Z 1000ea00 f   TAConfig.obj
 0001:0000dfb0       ?strlwr_s@Checked@ATL@@YAXPADI@Z 1000efb0 f i TAConfig.obj
 0001:0000e080       ?AtlThrowImpl@ATL@@YGXJ@Z  1000f080 f i TAConfig.obj
 0001:0000e0b0       ?strupr_s@Checked@ATL@@YAXPADI@Z 1000f0b0 f i TAConfig.obj
 0001:0000e180       ?EnumIniRegInfo_Begin@TADRConfig@@QAEHPAPAU_EnumRegInfo@@PAPBDPAPBX@Z 1000f180 f   TAConfig.obj
 0001:0000e250       ?EnumIniRegInfo_Next@TADRConfig@@QAEHPAPAU_EnumRegInfo@@PAPBDPAPBX@Z 1000f250 f   TAConfig.obj
 0001:0000e3b0       ?EnumIniRegInfo_End@TADRConfig@@QAEHPAPAU_EnumRegInfo@@@Z 1000f3b0 f   TAConfig.obj
 0001:0000e420       ?GetIniCrc@TADRConfig@@QAEIXZ 1000f420 f   TAConfig.obj
 0001:0000e500       ??0RegDword@@QAE@PADHK@Z   1000f500 f   TAConfig.obj
 0001:0000e570       ??1RegDword@@QAE@XZ        1000f570 f   TAConfig.obj
 0001:0000e5a0       ?Name@RegString@@QAEPBDXZ  1000f5a0 f   TAConfig.obj
 0001:0000e5a0       ?Name@RegDword@@QAEPBDXZ   1000f5a0 f   TAConfig.obj
 0001:0000e5b0       ?Value@RegDword@@QAEKXZ    1000f5b0 f   TAConfig.obj
 0001:0000e5b0       ?AddrToHook@SingleHook@@UAEQAXXZ 1000f5b0 f   Hook.obj
 0001:0000e5b0       ?Str@RegString@@QAEPBDXZ   1000f5b0 f   TAConfig.obj
 0001:0000e5d0       ??0RegString@@QAE@PADH0H@Z 1000f5d0 f   TAConfig.obj
 0001:0000e670       ??1RegString@@QAE@XZ       1000f670 f   TAConfig.obj
 0001:0000e6c0       ?back@?$vector@PAVRegString@@V?$allocator@PAVRegString@@@std@@@std@@QAEAAPAVRegString@@XZ 1000f6c0 f i TAConfig.obj
 0001:0000e700       ??1_Container_base12@std@@QAE@XZ 1000f700 f i dddta.obj
 0001:0000e700       ?SetVisibleList@Dialog@@AAEXXZ 1000f700 f i dialog.obj
 0001:0000e700       ??1?$_Deque_iterator@UMMHS@AlliesWhiteboard@@V?$allocator@UMMHS@AlliesWhiteboard@@@std@@@std@@QAE@XZ 1000f700 f i whiteboard.obj
 0001:0000e700       ??1_TAHPI@@QAE@XZ          1000f700 f i HPIfunc.obj
 0001:0000e700       ??1?$_Vector_val@PAVRegString@@V?$allocator@PAVRegString@@@std@@@std@@QAE@XZ 1000f700 f i TAConfig.obj
 0001:0000e700       ?Draw@GraphicText@@UAEXXZ  1000f700 f i whiteboard.obj
 0001:0000e700       ??1?$_Deque_iterator@PAVGraphicElement@@V?$allocator@PAVGraphicElement@@@std@@@std@@QAE@XZ 1000f700 f i whiteboard.obj
 0001:0000e700       ??1CChangeQueue@@QAE@XZ    1000f700 f i changequeue.obj
 0001:0000e700       ??1?$_Vector_val@PADV?$allocator@PAD@std@@@std@@QAE@XZ 1000f700 f i UnicodeSupport.obj
 0001:0000e700       ?Draw@GraphicLine@@UAEXXZ  1000f700 f i whiteboard.obj
 0001:0000e700       ?Draw@GraphicElement@@UAEXXZ 1000f700 f i whiteboard.obj
 0001:0000e700       ?Erase@PCX@@QAEXXZ         1000f700 f i PCX.obj
 0001:0000e700       ??1?$_Vector_val@PAVRegDword@@V?$allocator@PAVRegDword@@@std@@@std@@QAE@XZ 1000f700 f i TAConfig.obj
 0001:0000e700       ??1?$_Deque_iterator@UTAShareMemStruct@CDDDTA@@V?$allocator@UTAShareMemStruct@CDDDTA@@@std@@@std@@QAE@XZ 1000f700 f i dddta.obj
 0001:0000e700       ??1?$_Vector_val@PAVGraphicElement@@V?$allocator@PAVGraphicElement@@@std@@@std@@QAE@XZ 1000f700 f i whiteboard.obj
 0001:0000e710       ??$_Cons_val@V?$allocator@PAVRegString@@@std@@PAVRegString@@AAPAV3@@std@@YGXAAV?$allocator@PAVRegString@@@0@PAPAVRegString@@AAPAV2@@Z 1000f710 f i TAConfig.obj
 0001:0000e710       ??$_Cons_val@V?$allocator@PAVRegDword@@@std@@PAVRegDword@@AAPAV3@@std@@YGXAAV?$allocator@PAVRegDword@@@0@PAPAVRegDword@@AAPAV2@@Z 1000f710 f i TAConfig.obj
 0001:0000e710       ??$_Cons_val@V?$allocator@PAVGraphicElement@@@std@@PAVGraphicElement@@PAV3@@std@@YGXAAV?$allocator@PAVGraphicElement@@@0@PAPAVGraphicElement@@$$QAPAV2@@Z 1000f710 f i whiteboard.obj
 0001:0000e710       ??$_Cons_val@V?$allocator@PAD@std@@PADPAD@std@@YGXAAV?$allocator@PAD@0@PAPAD$$QAPAD@Z 1000f710 f i UnicodeSupport.obj
 0001:0000e710       ??$_Cons_val@V?$allocator@PAVGraphicElement@@@std@@PAVGraphicElement@@AAPAV3@@std@@YGXAAV?$allocator@PAVGraphicElement@@@0@PAPAVGraphicElement@@AAPAV2@@Z 1000f710 f i ElementHandler.obj
 0001:0000e750       ??0CTAHook@@QAE@XZ         1000f750 f   tahook.obj
 0001:0000ea10       ??1CTAHook@@QAE@XZ         1000fa10 f   tahook.obj
 0001:0000eaa0       ?Message@CTAHook@@QAE_NPAUHWND__@@IIJ@Z 1000faa0 f   tahook.obj
 0001:0000f400       ?Set@CTAHook@@QAEXHPAD_N1H@Z 10010400 f   tahook.obj
 0001:0000f450       ?WriteShareMacro@CTAHook@@QAEXXZ 10010450 f   tahook.obj
 0001:0000f5a0       ?Blit@CTAHook@@QAEXPAUIDirectDrawSurface@@@Z 100105a0 f   tahook.obj
 0001:0000f5b0       ?TABlit@CTAHook@@QAEXXZ    100105b0 f   tahook.obj
 0001:0000f600       ?WriteDTLine@CTAHook@@AAEXXZ 10010600 f   tahook.obj
 0001:0000f6a0       ?CalculateLine@CTAHook@@AAEXXZ 100106a0 f   tahook.obj
 0001:0000f950       ?UpdateSpacing@CTAHook@@AAEXXZ 10010950 f   tahook.obj
 0001:0000f990       ?OptimizeDTRows@CTAHook@@AAEXXZ 10010990 f   tahook.obj
 0001:0000fd00       ?VisualizeRow@CTAHook@@AAEXXZ 10010d00 f   tahook.obj
 0001:0000fe30       ?GetMaxScrollX@CTAHook@@SGHXZ 10010e30 f   tahook.obj
 0001:0000fe70       ?GetMaxScrollY@CTAHook@@SGHXZ 10010e70 f   tahook.obj
 0001:0000feb0       ?CalculateRing@CTAHook@@AAEXXZ 10010eb0 f   tahook.obj
 0001:0000ffb0       ?CalculateRing@CTAHook@@AAEXHHHH@Z 10010fb0 f   tahook.obj
 0001:00010340       ?ClickBuilding@CTAHook@@AAEXHH@Z 10011340 f   tahook.obj
 0001:000103b0       ?GetFootX@CTAHook@@AAEFXZ  100113b0 f   tahook.obj
 0001:000103e0       ?GetFootY@CTAHook@@AAEFXZ  100113e0 f   tahook.obj
 0001:00010410       ?DrawBuildRect@CTAHook@@AAEXHHHHH@Z 10011410 f   tahook.obj
 0001:00010600       ?EnableTABuildRect@CTAHook@@AAEXXZ 10011600 f   tahook.obj
 0001:00010630       ?DisableTABuildRect@CTAHook@@AAEXXZ 10011630 f   tahook.obj
 0001:00010660       ?PaintMinimapRect@CTAHook@@AAEXXZ 10011660 f   tahook.obj
 0001:00010690       ??0UnicodeSupport@@QAE@PBDKK@Z 10011690 f   UnicodeSupport.obj
 0001:00010cd0       ?CreateSurfaceFromContextScreen@UnicodeSupport@@QAEPAUIDirectDrawSurface@@PAU_OFFSCREEN@@PAUIDirectDraw@@PAPAU2@@Z 10011cd0 f   UnicodeSupport.obj
 0001:00010d80       ?NewSpecScreenSurface@UnicodeSupport@@AAEPAUtagSpecScreenSurface@@PAU_OFFSCREEN@@@Z 10011d80 f   UnicodeSupport.obj
 0001:00010e70       ?FreeSpecScreenSurface@UnicodeSupport@@AAEXPAUtagSpecScreenSurface@@@Z 10011e70 f   UnicodeSupport.obj
 0001:00010f50       ?GetSpecScreenSurface@UnicodeSupport@@AAEPAUtagSpecScreenSurface@@PAU_OFFSCREEN@@@Z 10011f50 f   UnicodeSupport.obj
 0001:00011020       ?UnicodeDrawTextA@UnicodeSupport@@QAEHPAU_OFFSCREEN@@PADPAUIDirectDraw@@HH@Z 10012020 f   UnicodeSupport.obj
 0001:00011300       ?IsIDDrawLost@UnicodeSupport@@AAEHXZ 10012300 f   UnicodeSupport.obj
 0001:00011330       ?RestoreLocalSurf@UnicodeSupport@@AAEXXZ 10012330 f   UnicodeSupport.obj
 0001:00011430       ?Blt@UnicodeSupport@@QAE_NPAUIDirectDrawSurface@@@Z 10012430 f   UnicodeSupport.obj
 0001:000116d0       ?ReleaseCandidateList@UnicodeSupport@@AAEXXZ 100126d0 f   UnicodeSupport.obj
 0001:000117c0       ?DrawSeparator@UnicodeSupport@@AAEHPAUHDC__@@HPAH1PAUHBRUSH__@@@Z 100127c0 f   UnicodeSupport.obj
 0001:00011830       ?DrawALine_Ime@UnicodeSupport@@AAEXPAUHDC__@@PADPAH2@Z 10012830 f   UnicodeSupport.obj
 0001:000118d0       ?UpdateImeInput@UnicodeSupport@@AAE_NXZ 100128d0 f   UnicodeSupport.obj
 0001:00011af0       ?UpdateImeFrame@UnicodeSupport@@AAE_NXZ 10012af0 f   UnicodeSupport.obj
 0001:00011ef0       ?SetHDCFont@UnicodeSupport@@AAEXPAUHDC__@@PAUHFONT__@@@Z 10012ef0 f   UnicodeSupport.obj
 0001:00011f30       ?SendStr@UnicodeSupport@@AAEXPAD@Z 10012f30 f   UnicodeSupport.obj
 0001:00011f80       ?Message@UnicodeSupport@@QAE_NPAUHWND__@@IIJ@Z 10012f80 f   UnicodeSupport.obj
 0001:000124e0       ?CopyToContextScreenMem@@YGXPAU_OFFSCREEN@@PAUtagSpecScreenSurface@@@Z 100134e0 f   UnicodeSupport.obj
 0001:00012560       ?CopyToSpecSurfaceMem@@YGXPAUtagSpecScreenSurface@@PAU_OFFSCREEN@@@Z 10013560 f   UnicodeSupport.obj
 0001:000125e0       ?USDrawTextInScreen_HookRouter@@YGHPAUtagInlineX86StackBuffer@@@Z 100135e0 f   UnicodeSupport.obj
 0001:00012710       ?myValidChar@@YGHPAUtagInlineX86StackBuffer@@@Z 10013710 f   UnicodeSupport.obj
 0001:00012870       ?myDeleteChar@@YGHPAUtagInlineX86StackBuffer@@@Z 10013870 f   UnicodeSupport.obj
 0001:00012950       ?Blt_BottomState0_Text@@YGHPAUtagInlineX86StackBuffer@@@Z 10013950 f   UnicodeSupport.obj
 0001:00012a80       ?Blt_BottomState1_Text@@YGHPAUtagInlineX86StackBuffer@@@Z 10013a80 f   UnicodeSupport.obj
 0001:00012bb0       ?PopadState@@YGHPAUtagInlineX86StackBuffer@@@Z 10013bb0 f   UnicodeSupport.obj
 0001:00012c60       ?GetStrExtent@@YGHPAUtagInlineX86StackBuffer@@@Z 10013c60 f   UnicodeSupport.obj
 0001:00012cc0       ?GetTextExtent_AssignCharLen@@YGHPAUtagInlineX86StackBuffer@@@Z 10013cc0 f   UnicodeSupport.obj
 0001:00012d20       ?push_back@?$vector@PAVGraphicElement@@V?$allocator@PAVGraphicElement@@@std@@@std@@QAEX$$QAPAVGraphicElement@@@Z 10013d20 f i whiteboard.obj
 0001:00012d20       ?push_back@?$vector@PADV?$allocator@PAD@std@@@std@@QAEX$$QAPAD@Z 10013d20 f i UnicodeSupport.obj
 0001:00012e00       ?_Tidy@?$vector@PAVGraphicElement@@V?$allocator@PAVGraphicElement@@@std@@@std@@IAEXXZ 10013e00 f i whiteboard.obj
 0001:00012e00       ?_Tidy@?$vector@PAVRegString@@V?$allocator@PAVRegString@@@std@@@std@@IAEXXZ 10013e00 f i TAConfig.obj
 0001:00012e00       ?_Tidy@?$vector@PAVRegDword@@V?$allocator@PAVRegDword@@@std@@@std@@IAEXXZ 10013e00 f i TAConfig.obj
 0001:00012e00       ?_Tidy@?$vector@PADV?$allocator@PAD@std@@@std@@IAEXXZ 10013e00 f i UnicodeSupport.obj
 0001:00012e60       ??$_Dest_val@V?$allocator@PAD@std@@PAD@std@@YGXAAV?$allocator@PAD@0@PAPAD@Z 10013e60 f i UnicodeSupport.obj
 0001:00012e60       ??$_Dest_val@V?$allocator@PAVGraphicElement@@@std@@PAVGraphicElement@@@std@@YGXAAV?$allocator@PAVGraphicElement@@@0@PAPAVGraphicElement@@@Z 10013e60 f i whiteboard.obj
 0001:00012e60       ??$_Dest_val@V?$allocator@PAVRegString@@@std@@PAVRegString@@@std@@YGXAAV?$allocator@PAVRegString@@@0@PAPAVRegString@@@Z 10013e60 f i TAConfig.obj
 0001:00012e60       ??$_Dest_val@V?$allocator@PAUMMHS@AlliesWhiteboard@@@std@@PAUMMHS@AlliesWhiteboard@@@std@@YGXAAV?$allocator@PAUMMHS@AlliesWhiteboard@@@0@PAPAUMMHS@AlliesWhiteboard@@@Z 10013e60 f i whiteboard.obj
 0001:00012e60       ??$_Dest_val@V?$allocator@UMMHS@AlliesWhiteboard@@@std@@UMMHS@AlliesWhiteboard@@@std@@YGXAAV?$allocator@UMMHS@AlliesWhiteboard@@@0@PAUMMHS@AlliesWhiteboard@@@Z 10013e60 f i whiteboard.obj
 0001:00012e60       ??$_Dest_val@V?$allocator@UTAShareMemStruct@CDDDTA@@@std@@UTAShareMemStruct@CDDDTA@@@std@@YGXAAV?$allocator@UTAShareMemStruct@CDDDTA@@@0@PAUTAShareMemStruct@CDDDTA@@@Z 10013e60 f i dddta.obj
 0001:00012e60       ??$_Dest_val@V?$allocator@U_Container_proxy@std@@@std@@U_Container_proxy@2@@std@@YGXAAV?$allocator@U_Container_proxy@std@@@0@PAU_Container_proxy@0@@Z 10013e60 f i dddta.obj
 0001:00012e60       ??$_Dest_val@V?$allocator@PAVRegDword@@@std@@PAVRegDword@@@std@@YGXAAV?$allocator@PAVRegDword@@@0@PAPAVRegDword@@@Z 10013e60 f i TAConfig.obj
 0001:00012e60       ??$_Dest_val@V?$allocator@PAUTAShareMemStruct@CDDDTA@@@std@@PAUTAShareMemStruct@CDDDTA@@@std@@YGXAAV?$allocator@PAUTAShareMemStruct@CDDDTA@@@0@PAPAUTAShareMemStruct@CDDDTA@@@Z 10013e60 f i dddta.obj
 0001:00012e60       ??$_Dest_val@V?$allocator@U_Node@?$_List_nod@PAVGraphicElement@@V?$allocator@PAVGraphicElement@@@std@@@std@@@std@@U_Node@?$_List_nod@PAVGraphicElement@@V?$allocator@PAVGraphicElement@@@std@@@2@@std@@YGXAAV?$allocator@U_Node@?$_List_nod@PAVGraphicElement@@V?$allocator@PAVGraphicElement@@@std@@@std@@@0@PAU_Node@?$_List_nod@PAVGraphicElement@@V?$allocator@PAVGraphicElement@@@std@@@0@@Z 10013e60 f i ElementHandler.obj
 0001:00012e60       ??$_Dest_val@V?$allocator@PAPAVGraphicElement@@@std@@PAPAVGraphicElement@@@std@@YGXAAV?$allocator@PAPAVGraphicElement@@@0@PAPAPAVGraphicElement@@@Z 10013e60 f i whiteboard.obj
 0001:00012e70       ??0LimitCrack@@QAE@XZ      10013e70 f   LimitCrack.obj
 0001:00013380       ??1LimitCrack@@QAE@XZ      10014380 f   LimitCrack.obj
 0001:00013520       ??0IncreaseAISearchMapEntriesLimit@@QAE@K@Z 10014520 f   LimitCrack.obj
 0001:000135c0       ??1IncreaseAISearchMapEntriesLimit@@QAE@XZ 100145c0 f   LimitCrack.obj
 0001:00013610       ??0IncreaseWeaponTypeLimit@@QAE@K@Z 10014610 f   LimitCrack.obj
 0001:00013640       ?NewLimit@IncreaseWeaponTypeLimit@@AAEXK@Z 10014640 f   LimitCrack.obj
 0001:00013780       ??1IncreaseWeaponTypeLimit@@QAE@XZ 10014780 f   LimitCrack.obj
 0001:000139a0       ?WriteWeaponAryPtr@IncreaseWeaponTypeLimit@@AAEPAXPAPAX@Z 100149a0 f   LimitCrack.obj
 0001:00013b10       ?WriteWeaponAryLen@IncreaseWeaponTypeLimit@@AAEKK@Z 10014b10 f   LimitCrack.obj
 0001:00013be0       ?WeaponType_IdLimit@IncreaseWeaponTypeLimit@@AAEXXZ 10014be0 f   LimitCrack.obj
 0001:00013d40       ??0IncreaseUnitTypeLimit@@QAE@H@Z 10014d40 f   LimitCrack.obj
 0001:00013d60       ??1IncreaseUnitTypeLimit@@QAE@XZ 10014d60 f   LimitCrack.obj
 0001:000140c0       ?WriteNewLimit@IncreaseUnitTypeLimit@@AAEXK@Z 100150c0 f   LimitCrack.obj
 0001:00014830       ??0IncreaseCompositeBuf@@QAE@KK@Z 10015830 f   LimitCrack.obj
 0001:00014850       ??1IncreaseCompositeBuf@@QAE@XZ 10015850 f   LimitCrack.obj
 0001:000148b0       ?WriteNewLimit@IncreaseCompositeBuf@@AAEXKK@Z 100158b0 f   LimitCrack.obj
 0001:000149a0       ?Sfx_mallocBufSizeRouter@@YGHPAUtagInlineX86StackBuffer@@@Z 100159a0 f   LimitCrack.obj
 0001:000149c0       ??0IncreaseSfxLimit@@QAE@K@Z 100159c0 f   LimitCrack.obj
 0001:000149f0       ??1IncreaseSfxLimit@@QAE@XZ 100159f0 f   LimitCrack.obj
 0001:00014ac0       ?SetNewLimit@IncreaseSfxLimit@@AAEXKK@Z 10015ac0 f   LimitCrack.obj
 0001:00014c20       ??0AlliesWhiteboard@@QAE@XZ 10015c20 f   whiteboard.obj
 0001:00014e30       ??1AlliesWhiteboard@@QAE@XZ 10015e30 f   whiteboard.obj
 0001:00014f00       ?Blit@AlliesWhiteboard@@QAEXPAUIDirectDrawSurface@@@Z 10015f00 f   whiteboard.obj
 0001:00014f70       ?LockBlit@AlliesWhiteboard@@QAEXPADH@Z 10015f70 f   whiteboard.obj
 0001:000151a0       ?Message@AlliesWhiteboard@@QAE_NPAUHWND__@@IIJ@Z 100161a0 f   whiteboard.obj
 0001:00015c20       ??_GGraphicMoveText@@UAEPAXI@Z 10016c20 f i whiteboard.obj
 0001:00015c20       ??_GGraphicElement@@UAEPAXI@Z 10016c20 f i whiteboard.obj
 0001:00015c20       ??_EGraphicElement@@UAEPAXI@Z 10016c20 f i whiteboard.obj
 0001:00015c20       ??_EGraphicMoveText@@UAEPAXI@Z 10016c20 f i whiteboard.obj
 0001:00015c20       ??_GGraphicLine@@UAEPAXI@Z 10016c20 f i whiteboard.obj
 0001:00015c20       ??_GDeleteGraphic@@UAEPAXI@Z 10016c20 f i whiteboard.obj
 0001:00015c20       ??_EGraphicLine@@UAEPAXI@Z 10016c20 f i whiteboard.obj
 0001:00015c20       ??_EDeleteGraphic@@UAEPAXI@Z 10016c20 f i whiteboard.obj
 0001:00015c50       ??0GraphicText@@QAE@HHPADD@Z 10016c50 f i whiteboard.obj
 0001:00015d20       ??1GraphicElement@@UAE@XZ  10016d20 f i whiteboard.obj
 0001:00015d40       ??_GGraphicText@@UAEPAXI@Z 10016d40 f i whiteboard.obj
 0001:00015d40       ??_EGraphicText@@UAEPAXI@Z 10016d40 f i whiteboard.obj
 0001:00015d90       ?Set@AlliesWhiteboard@@QAEXH@Z 10016d90 f   whiteboard.obj
 0001:00015db0       ?DrawTextInput@AlliesWhiteboard@@AAEXPAUIDirectDrawSurface@@@Z 10016db0 f   whiteboard.obj
 0001:00015fd0       ?TextInputKeyDown@AlliesWhiteboard@@AAEXH@Z 10016fd0 f   whiteboard.obj
 0001:00016190       ??0GraphicTextEdited@@QAE@HHPADD@Z 10017190 f i whiteboard.obj
 0001:00016260       ??_GGraphicTextEdited@@UAEPAXI@Z 10017260 f i whiteboard.obj
 0001:00016260       ??_EGraphicTextEdited@@UAEPAXI@Z 10017260 f i whiteboard.obj
 0001:000162b0       ?TextInputChar@AlliesWhiteboard@@AAEXD@Z 100172b0 f   whiteboard.obj
 0001:00016330       ?AddTextMarker@AlliesWhiteboard@@AAEXXZ 10017330 f   whiteboard.obj
 0001:00016480       ?RestoreAll@AlliesWhiteboard@@AAEXXZ 10017480 f   whiteboard.obj
 0001:000164f0       ?DrawMarkers@AlliesWhiteboard@@AAEXPAUIDirectDrawSurface@@@Z 100174f0 f   whiteboard.obj
 0001:00016670       ?DrawMinimapMarkers@AlliesWhiteboard@@QAEXPADH_N@Z 10017670 f   whiteboard.obj
 0001:00016e40       ?GetMarkers@AlliesWhiteboard@@QAEXPAUMarkerArray@@@Z 10017e40 f   whiteboard.obj
 0001:00017020       ?DrawTextMarker@AlliesWhiteboard@@AAEXPAUIDirectDrawSurface@@HHPADD@Z 10018020 f   whiteboard.obj
 0001:00017190       ?DeleteMarker@AlliesWhiteboard@@AAEXHH@Z 10018190 f   whiteboard.obj
 0001:00017230       ?EreaseArea@AlliesWhiteboard@@AAEXHH@Z 10018230 f   whiteboard.obj
 0001:00017300       ?MouseMove@AlliesWhiteboard@@AAEXHHHH@Z 10018300 f   whiteboard.obj
 0001:000174c0       ?ReceiveMarkers@AlliesWhiteboard@@AAEXXZ 100184c0 f   whiteboard.obj
 0001:00017950       ?SendMarkers@AlliesWhiteboard@@AAEXXZ 10018950 f   whiteboard.obj
 0001:00018240       ?DrawLine@AlliesWhiteboard@@QAEXHHHHDPADH@Z 10019240 f   whiteboard.obj
 0001:00018350       ?DrawFreeLine@AlliesWhiteboard@@QAEXHHHHDPADH@Z 10019350 f   whiteboard.obj
 0001:000183a0       ?EchoMarker@AlliesWhiteboard@@AAEXPAD@Z 100193a0 f   whiteboard.obj
 0001:00018400       ?GetTextElementAt@AlliesWhiteboard@@AAEPAVGraphicElement@@HHH@Z 10019400 f   whiteboard.obj
 0001:00018520       ?ScrollToCenter@AlliesWhiteboard@@QAEXHH@Z 10019520 f   whiteboard.obj
 0001:00018520       ?ScrollToCenter@CIdleUnits@@AAEXHH@Z 10019520 f   idlevillager.obj
 0001:000185e0       ?DrawRotateRect@AlliesWhiteboard@@AAEXHHHPADH@Z 100195e0 f   whiteboard.obj
 0001:00018850       ?Clip_Line@AlliesWhiteboard@@QAEHAAH000@Z 10019850 f   whiteboard.obj
 0001:00019320       ?Draw_Line@AlliesWhiteboard@@QAEHHHHHEPAEH@Z 1001a320 f   whiteboard.obj
 0001:00019460       ?GenerateLookupTables@AlliesWhiteboard@@AAEXXZ 1001a460 f   whiteboard.obj
 0001:000194f0       ?push_back@?$deque@PAVGraphicElement@@V?$allocator@PAVGraphicElement@@@std@@@std@@QAEX$$QAPAVGraphicElement@@@Z 1001a4f0 f i whiteboard.obj
 0001:000195d0       ??1?$deque@PAVGraphicElement@@V?$allocator@PAVGraphicElement@@@std@@@std@@QAE@XZ 1001a5d0 f i whiteboard.obj
 0001:00019650       ?pop_front@?$deque@PAVGraphicElement@@V?$allocator@PAVGraphicElement@@@std@@@std@@QAEXXZ 1001a650 f i whiteboard.obj
 0001:00019710       ??1?$deque@UMMHS@AlliesWhiteboard@@V?$allocator@UMMHS@AlliesWhiteboard@@@std@@@std@@QAE@XZ 1001a710 f i whiteboard.obj
 0001:00019790       ?back@?$deque@UMMHS@AlliesWhiteboard@@V?$allocator@UMMHS@AlliesWhiteboard@@@std@@@std@@QAEAAUMMHS@AlliesWhiteboard@@XZ 1001a790 f i whiteboard.obj
 0001:00019820       ?push_front@?$deque@UMMHS@AlliesWhiteboard@@V?$allocator@UMMHS@AlliesWhiteboard@@@std@@@std@@QAEXABUMMHS@AlliesWhiteboard@@@Z 1001a820 f i whiteboard.obj
 0001:00019940       ?pop_back@?$deque@UMMHS@AlliesWhiteboard@@V?$allocator@UMMHS@AlliesWhiteboard@@@std@@@std@@QAEXXZ 1001a940 f i whiteboard.obj
 0001:000199f0       ??1?$vector@PADV?$allocator@PAD@std@@@std@@QAE@XZ 1001a9f0 f i UnicodeSupport.obj
 0001:000199f0       ??1?$vector@PAVRegDword@@V?$allocator@PAVRegDword@@@std@@@std@@QAE@XZ 1001a9f0 f i TAConfig.obj
 0001:000199f0       ??1?$vector@PAVGraphicElement@@V?$allocator@PAVGraphicElement@@@std@@@std@@QAE@XZ 1001a9f0 f i whiteboard.obj
 0001:000199f0       ??1?$vector@PAVRegString@@V?$allocator@PAVRegString@@@std@@@std@@QAE@XZ 1001a9f0 f i TAConfig.obj
 0001:00019a40       ?begin@?$deque@UTAShareMemStruct@CDDDTA@@V?$allocator@UTAShareMemStruct@CDDDTA@@@std@@@std@@QAE?AV?$_Deque_iterator@UTAShareMemStruct@CDDDTA@@V?$allocator@UTAShareMemStruct@CDDDTA@@@std@@@2@XZ 1001aa40 f i dddta.obj
 0001:00019a40       ?begin@?$deque@UMMHS@AlliesWhiteboard@@V?$allocator@UMMHS@AlliesWhiteboard@@@std@@@std@@QAE?AV?$_Deque_iterator@UMMHS@AlliesWhiteboard@@V?$allocator@UMMHS@AlliesWhiteboard@@@std@@@2@XZ 1001aa40 f i whiteboard.obj
 0001:00019a40       ?begin@?$deque@PAVGraphicElement@@V?$allocator@PAVGraphicElement@@@std@@@std@@QAE?AV?$_Deque_iterator@PAVGraphicElement@@V?$allocator@PAVGraphicElement@@@std@@@2@XZ 1001aa40 f i whiteboard.obj
 0001:00019aa0       ?_Growmap@?$deque@PAVGraphicElement@@V?$allocator@PAVGraphicElement@@@std@@@std@@IAEXI@Z 1001aaa0 f i whiteboard.obj
 0001:00019e50       ?_Tidy@?$deque@PAVGraphicElement@@V?$allocator@PAVGraphicElement@@@std@@@std@@IAEXXZ 1001ae50 f i whiteboard.obj
 0001:00019f20       ??1?$_Deque_val@UMMHS@AlliesWhiteboard@@V?$allocator@UMMHS@AlliesWhiteboard@@@std@@@std@@QAE@XZ 1001af20 f i whiteboard.obj
 0001:00019f20       ??1?$_Deque_val@PAVGraphicElement@@V?$allocator@PAVGraphicElement@@@std@@@std@@QAE@XZ 1001af20 f i whiteboard.obj
 0001:00019f20       ??1?$_Deque_val@UTAShareMemStruct@CDDDTA@@V?$allocator@UTAShareMemStruct@CDDDTA@@@std@@@std@@QAE@XZ 1001af20 f i dddta.obj
 0001:00019fa0       ?end@?$deque@UMMHS@AlliesWhiteboard@@V?$allocator@UMMHS@AlliesWhiteboard@@@std@@@std@@QAE?AV?$_Deque_iterator@UMMHS@AlliesWhiteboard@@V?$allocator@UMMHS@AlliesWhiteboard@@@std@@@2@XZ 1001afa0 f i whiteboard.obj
 0001:0001a010       ?_Growmap@?$deque@UMMHS@AlliesWhiteboard@@V?$allocator@UMMHS@AlliesWhiteboard@@@std@@@std@@IAEXI@Z 1001b010 f i whiteboard.obj
 0001:0001a3b0       ?_Tidy@?$deque@UMMHS@AlliesWhiteboard@@V?$allocator@UMMHS@AlliesWhiteboard@@@std@@@std@@IAEXXZ 1001b3b0 f i whiteboard.obj
 0001:0001a480       ?_Assign_rv@?$vector@PAVGraphicElement@@V?$allocator@PAVGraphicElement@@@std@@@std@@QAEX$$QAV12@@Z 1001b480 f i whiteboard.obj
 0001:0001a570       ??H?$_Deque_iterator@UMMHS@AlliesWhiteboard@@V?$allocator@UMMHS@AlliesWhiteboard@@@std@@@std@@QBE?AV01@H@Z 1001b570 f i whiteboard.obj
 0001:0001a570       ??H?$_Deque_iterator@UTAShareMemStruct@CDDDTA@@V?$allocator@UTAShareMemStruct@CDDDTA@@@std@@@std@@QBE?AV01@H@Z 1001b570 f i dddta.obj
 0001:0001a620       ??G?$_Deque_iterator@UMMHS@AlliesWhiteboard@@V?$allocator@UMMHS@AlliesWhiteboard@@@std@@@std@@QBE?AV01@H@Z 1001b620 f i whiteboard.obj
 0001:0001a6d0       ?pop_back@?$deque@PAVGraphicElement@@V?$allocator@PAVGraphicElement@@@std@@@std@@QAEXXZ 1001b6d0 f i whiteboard.obj
 0001:0001a780       ?clear@?$vector@PAVGraphicElement@@V?$allocator@PAVGraphicElement@@@std@@@std@@QAEXXZ 1001b780 f i whiteboard.obj
 0001:0001a7d0       ??D?$_Deque_const_iterator@PAVGraphicElement@@V?$allocator@PAVGraphicElement@@@std@@@std@@QBEABQAVGraphicElement@@XZ 1001b7d0 f i whiteboard.obj
 0001:0001a850       ??D?$_Deque_const_iterator@UMMHS@AlliesWhiteboard@@V?$allocator@UMMHS@AlliesWhiteboard@@@std@@@std@@QBEABUMMHS@AlliesWhiteboard@@XZ 1001b850 f i whiteboard.obj
 0001:0001a8d0       ?erase@?$vector@PAVGraphicElement@@V?$allocator@PAVGraphicElement@@@std@@@std@@QAE?AV?$_Vector_iterator@V?$_Vector_val@PAVGraphicElement@@V?$allocator@PAVGraphicElement@@@std@@@std@@@2@V?$_Vector_const_iterator@V?$_Vector_val@PAVGraphicElement@@V?$allocator@PAVGraphicElement@@@std@@@std@@@2@0@Z 1001b8d0 f i whiteboard.obj
 0001:0001a980       ?_Reserve@?$vector@PAVRegString@@V?$allocator@PAVRegString@@@std@@@std@@IAEXI@Z 1001b980 f i TAConfig.obj
 0001:0001a980       ?_Reserve@?$vector@PAVRegDword@@V?$allocator@PAVRegDword@@@std@@@std@@IAEXI@Z 1001b980 f i TAConfig.obj
 0001:0001a980       ?_Reserve@?$vector@PAVGraphicElement@@V?$allocator@PAVGraphicElement@@@std@@@std@@IAEXI@Z 1001b980 f i whiteboard.obj
 0001:0001a980       ?_Reserve@?$vector@PADV?$allocator@PAD@std@@@std@@IAEXI@Z 1001b980 f i UnicodeSupport.obj
 0001:0001aa10       ?reserve@?$vector@PAVGraphicElement@@V?$allocator@PAVGraphicElement@@@std@@@std@@QAEXI@Z 1001ba10 f i whiteboard.obj
 0001:0001aa10       ?reserve@?$vector@PADV?$allocator@PAD@std@@@std@@QAEXI@Z 1001ba10 f i UnicodeSupport.obj
 0001:0001aa10       ?reserve@?$vector@PAVRegString@@V?$allocator@PAVRegString@@@std@@@std@@QAEXI@Z 1001ba10 f i TAConfig.obj
 0001:0001aa10       ?reserve@?$vector@PAVRegDword@@V?$allocator@PAVRegDword@@@std@@@std@@QAEXI@Z 1001ba10 f i TAConfig.obj
 0001:0001ab90       ?_Grow_to@?$vector@PAVRegString@@V?$allocator@PAVRegString@@@std@@@std@@IBEII@Z 1001bb90 f i TAConfig.obj
 0001:0001ab90       ?_Grow_to@?$vector@PAVGraphicElement@@V?$allocator@PAVGraphicElement@@@std@@@std@@IBEII@Z 1001bb90 f i whiteboard.obj
 0001:0001ab90       ?_Grow_to@?$vector@PADV?$allocator@PAD@std@@@std@@IBEII@Z 1001bb90 f i UnicodeSupport.obj
 0001:0001ab90       ?_Grow_to@?$vector@PAVRegDword@@V?$allocator@PAVRegDword@@@std@@@std@@IBEII@Z 1001bb90 f i TAConfig.obj
 0001:0001ac10       ??$_Cons_val@V?$allocator@UMMHS@AlliesWhiteboard@@@std@@UMMHS@AlliesWhiteboard@@ABU34@@std@@YGXAAV?$allocator@UMMHS@AlliesWhiteboard@@@0@PAUMMHS@AlliesWhiteboard@@ABU23@@Z 1001bc10 f i whiteboard.obj
 0001:0001ac60       ??$_Allocate@PAVGraphicElement@@@std@@YGPAPAVGraphicElement@@IPAPAV1@@Z 1001bc60 f i whiteboard.obj
 0001:0001ac60       ??$_Allocate@PAVRegDword@@@std@@YGPAPAVRegDword@@IPAPAV1@@Z 1001bc60 f i TAConfig.obj
 0001:0001ac60       ??$_Allocate@PAD@std@@YGPAPADIPAPAD@Z 1001bc60 f i UnicodeSupport.obj
 0001:0001ac60       ??$_Allocate@PAUTAShareMemStruct@CDDDTA@@@std@@YGPAPAUTAShareMemStruct@CDDDTA@@IPAPAU12@@Z 1001bc60 f i dddta.obj
 0001:0001ac60       ??$_Allocate@PAVRegString@@@std@@YGPAPAVRegString@@IPAPAV1@@Z 1001bc60 f i TAConfig.obj
 0001:0001ac60       ??$_Allocate@PAUMMHS@AlliesWhiteboard@@@std@@YGPAPAUMMHS@AlliesWhiteboard@@IPAPAU12@@Z 1001bc60 f i whiteboard.obj
 0001:0001ac60       ??$_Allocate@PAPAVGraphicElement@@@std@@YGPAPAPAVGraphicElement@@IPAPAPAV1@@Z 1001bc60 f i whiteboard.obj
 0001:0001acd0       ??0PCX@@QAE@XZ             1001bcd0 f   PCX.obj
 0001:0001ad10       ??1PCX@@QAE@XZ             1001bd10 f   PCX.obj
 0001:0001ad50       ?SetBuffer@PCX@@QAEPAEPAE@Z 1001bd50 f   PCX.obj
 0001:0001ad80       ?WriteLine@PCX@@AAEPAEPAEK@Z 1001bd80 f   PCX.obj
 0001:0001af00       ?Save@PCX@@QAEHPBD@Z       1001bf00 f   PCX.obj
 0001:0001b1f0       ?NewBuffer@PCX@@QAEPAEFF@Z 1001c1f0 f   PCX.obj
 0001:0001b260       ?CreateSurfPCXResource@@YGPAUIDirectDrawSurface@@G_N@Z 1001c260 f   pcxread.obj
 0001:0001b4c0       ?RestoreFromPCX@@YGXGPAUIDirectDrawSurface@@@Z 1001c4c0 f   pcxread.obj
 0001:0001b680       ?PCX2BitMap@@YGXPAEPAUpcx_picture_typ@@J@Z 1001c680 f   pcxread.obj
 0001:0001b880       _X86ShallToRedirect@20     1001c880 f   etc.obj
 0001:0001bb00       _X86RedirectOpcodeToNewBase@16 1001cb00 f   etc.obj
 0001:0001bea0       _GetMinValidLenWithMatchOpcode@8 1001cea0 f   etc.obj
 0001:0001bee0       _MemWriteWithBackup@16     1001cee0 f   etc.obj
 0001:0001bfe0       _GetOpCodeSize@4           1001cfe0 f   etc.obj
 0001:0001c290       _trim_crlf_@4              1001d290 f   etc.obj
 0001:0001c380       _RegWriteData@24           1001d380 f   etc.obj
 0001:0001c420       _RegWriteDword@16          1001d420 f   etc.obj
 0001:0001c440       _RegWriteStr@20            1001d440 f   etc.obj
 0001:0001c470       _CalcCRC@8                 1001d470 f   etc.obj
 0001:0001c530       _duplicate_str@4           1001d530 f   etc.obj
 0001:0001c590       _getDBCSlen@4              1001d590 f   etc.obj
 0001:0001c600       ??0SingleHook@@QAE@XZ      1001d600 f   Hook.obj
 0001:0001c630       ??0SingleHook@@QAE@IKHPAE@Z 1001d630 f   Hook.obj
 0001:0001c630       ??0SingleHook@@QAE@PAEKH0@Z 1001d630 f   Hook.obj
 0001:0001c670       ??1SingleHook@@QAE@XZ      1001d670 f   Hook.obj
 0001:0001c6e0       ?Hook@SingleHook@@UAEXXZ   1001d6e0 f   Hook.obj
 0001:0001c720       ?UnHook@SingleHook@@UAEXXZ 1001d720 f   Hook.obj
 0001:0001c760       ?AddrToHook@SingleHook@@UAEPAXPAX@Z 1001d760 f   Hook.obj
 0001:0001c780       ?ThisHookMode@SingleHook@@UAEHH@Z 1001d780 f   Hook.obj
 0001:0001c7a0       ?ThisHookMode@SingleHook@@UAE?BHXZ 1001d7a0 f   Hook.obj
 0001:0001c7c0       ?LenToHook@SingleHook@@UAEKK@Z 1001d7c0 f   Hook.obj
 0001:0001c7e0       ?InitHookClass@SingleHook@@UAEXPAEKH0@Z 1001d7e0 f   Hook.obj
 0001:0001c960       ?X86InlineHookRouter@@YGXXZ 1001d960 f   InlineHook.obj
 0001:0001ca30       ?X86CurrentThreadStackBufferFixRtnAddr@@YGPAUtagInlineX86StackBuffer@@PAPAU1@@Z 1001da30 f   InlineHook.obj
 0001:0001cae0       ?X86CurrentThreadStackBuffer@@YGPAUtagInlineX86StackBuffer@@PAPAU1@@Z 1001dae0 f   InlineHook.obj
 0001:0001cb70       ??0InlineSingleHook@@QAE@IKHP6GHPAUtagInlineX86StackBuffer@@@Z@Z 1001db70 f   InlineHook.obj
 0001:0001cc00       ??1InlineSingleHook@@QAE@XZ 1001dc00 f   InlineHook.obj
 0001:0001cd10       ?InitHookClass@InlineSingleHook@@AAEXQAEKHPAX1@Z 1001dd10 f   InlineHook.obj
 0001:0001cff0       ?Hook@InlineSingleHook@@UAEXXZ 1001dff0 f   InlineHook.obj
 0001:0001d0d0       ?RtnAddrOfHook@InlineSingleHook@@QAEQAXXZ 1001e0d0 f   InlineHook.obj
 0001:0001d0f0       ??0CElementHandler@@QAE@XZ 1001e0f0 f   ElementHandler.obj
 0001:0001d130       ??_GCElementHandler@@UAEPAXI@Z 1001e130 f i ElementHandler.obj
 0001:0001d130       ??_ECElementHandler@@UAEPAXI@Z 1001e130 f i ElementHandler.obj
 0001:0001d160       ??1CElementHandler@@UAE@XZ 1001e160 f   ElementHandler.obj
 0001:0001d2e0       ?AddElement@CElementHandler@@QAEXPAVGraphicElement@@@Z 1001e2e0 f   ElementHandler.obj
 0001:0001d350       ?DeleteOn@CElementHandler@@QAEXHH@Z 1001e350 f   ElementHandler.obj
 0001:0001d390       ?DeleteBetween@CElementHandler@@QAEXHHHH@Z 1001e390 f   ElementHandler.obj
 0001:0001d600       ?GetArea@CElementHandler@@QAE?AV?$vector@PAVGraphicElement@@V?$allocator@PAVGraphicElement@@@std@@@std@@HHHH@Z 1001e600 f   ElementHandler.obj
 0001:0001d8b0       ?MoveTextElement@CElementHandler@@QAEPAVGraphicElement@@PAV2@HH@Z 1001e8b0 f   ElementHandler.obj
 0001:0001da20       ??0?$list@PAVGraphicElement@@V?$allocator@PAVGraphicElement@@@std@@@std@@QAE@XZ 1001ea20 f i ElementHandler.obj
 0001:0001da80       ??1?$list@PAVGraphicElement@@V?$allocator@PAVGraphicElement@@@std@@@std@@QAE@XZ 1001ea80 f i ElementHandler.obj
 0001:0001daf0       ?erase@?$list@PAVGraphicElement@@V?$allocator@PAVGraphicElement@@@std@@@std@@QAE?AV?$_List_iterator@V?$_List_val@PAVGraphicElement@@V?$allocator@PAVGraphicElement@@@std@@@std@@@2@V?$_List_const_iterator@V?$_List_val@PAVGraphicElement@@V?$allocator@PAVGraphicElement@@@std@@@std@@@2@@Z 1001eaf0 f i ElementHandler.obj
 0001:0001db80       ?remove@?$list@PAVGraphicElement@@V?$allocator@PAVGraphicElement@@@std@@@std@@QAEXABQAVGraphicElement@@@Z 1001eb80 f i ElementHandler.obj
 0001:0001dc20       ?back@?$vector@PAVGraphicElement@@V?$allocator@PAVGraphicElement@@@std@@@std@@QAEAAPAVGraphicElement@@XZ 1001ec20 f i ElementHandler.obj
 0001:0001dc60       ?push_back@?$vector@PAVRegString@@V?$allocator@PAVRegString@@@std@@@std@@QAEXABQAVRegString@@@Z 1001ec60 f i TAConfig.obj
 0001:0001dc60       ?push_back@?$vector@PAVRegDword@@V?$allocator@PAVRegDword@@@std@@@std@@QAEXABQAVRegDword@@@Z 1001ec60 f i TAConfig.obj
 0001:0001dc60       ?push_back@?$vector@PAVGraphicElement@@V?$allocator@PAVGraphicElement@@@std@@@std@@QAEXABQAVGraphicElement@@@Z 1001ec60 f i ElementHandler.obj
 0001:0001dd40       ?pop_back@?$vector@PAVRegString@@V?$allocator@PAVRegString@@@std@@@std@@QAEXXZ 1001ed40 f i TAConfig.obj
 0001:0001dd40       ?pop_back@?$vector@PAVRegDword@@V?$allocator@PAVRegDword@@@std@@@std@@QAEXXZ 1001ed40 f i TAConfig.obj
 0001:0001dd40       ?pop_back@?$vector@PAVGraphicElement@@V?$allocator@PAVGraphicElement@@@std@@@std@@QAEXXZ 1001ed40 f i ElementHandler.obj
 0001:0001dd40       ?pop_back@?$vector@PADV?$allocator@PAD@std@@@std@@QAEXXZ 1001ed40 f i UnicodeSupport.obj
 0001:0001dd90       ?_Insert@?$list@PAVGraphicElement@@V?$allocator@PAVGraphicElement@@@std@@@std@@QAEXV?$_List_const_iterator@V?$_List_val@PAVGraphicElement@@V?$allocator@PAVGraphicElement@@@std@@@std@@@2@ABQAVGraphicElement@@@Z 1001ed90 f i ElementHandler.obj
 0001:0001de20       ??1?$_List_val@PAVGraphicElement@@V?$allocator@PAVGraphicElement@@@std@@@std@@QAE@XZ 1001ee20 f i ElementHandler.obj
 0001:0001de50       ?clear@?$list@PAVGraphicElement@@V?$allocator@PAVGraphicElement@@@std@@@std@@QAEXXZ 1001ee50 f i ElementHandler.obj
 0001:0001ded0       ?_Buynode@?$_List_val@PAVGraphicElement@@V?$allocator@PAVGraphicElement@@@std@@@std@@QAEPAU_Node@?$_List_nod@PAVGraphicElement@@V?$allocator@PAVGraphicElement@@@std@@@2@PAU342@0ABQAVGraphicElement@@@Z 1001eed0 f i ElementHandler.obj
 0001:0001df80       ??$_Cons_val@V?$allocator@PAVRegDword@@@std@@PAVRegDword@@ABQAV3@@std@@YGXAAV?$allocator@PAVRegDword@@@0@PAPAVRegDword@@ABQAV2@@Z 1001ef80 f i TAConfig.obj
 0001:0001df80       ??$_Cons_val@V?$allocator@PAVGraphicElement@@@std@@PAVGraphicElement@@ABQAV3@@std@@YGXAAV?$allocator@PAVGraphicElement@@@0@PAPAVGraphicElement@@ABQAV2@@Z 1001ef80 f i ElementHandler.obj
 0001:0001df80       ??$_Cons_val@V?$allocator@PAVRegString@@@std@@PAVRegString@@ABQAV3@@std@@YGXAAV?$allocator@PAVRegString@@@0@PAPAVRegString@@ABQAV2@@Z 1001ef80 f i TAConfig.obj
 0001:0001dfc0       ??$_Allocate@U_Node@?$_List_nod@PAVGraphicElement@@V?$allocator@PAVGraphicElement@@@std@@@std@@@std@@YGPAU_Node@?$_List_nod@PAVGraphicElement@@V?$allocator@PAVGraphicElement@@@std@@@0@IPAU120@@Z 1001efc0 f i ElementHandler.obj
 0001:0001dfc0       ??$_Allocate@UMMHS@AlliesWhiteboard@@@std@@YGPAUMMHS@AlliesWhiteboard@@IPAU12@@Z 1001efc0 f i whiteboard.obj
 0001:0001e030       ??_Glength_error@std@@UAEPAXI@Z 1001f030 f i xthrow.obj
 0001:0001e030       ??_Glogic_error@std@@UAEPAXI@Z 1001f030 f i xthrow.obj
 0001:0001e030       ??_Elength_error@std@@UAEPAXI@Z 1001f030 f i xthrow.obj
 0001:0001e030       ??_Elogic_error@std@@UAEPAXI@Z 1001f030 f i xthrow.obj
 0001:0001e060       ??0logic_error@std@@QAE@ABV01@@Z 1001f060 f i xthrow.obj
 0001:0001e090       ?_Xlength_error@std@@YAXPBD@Z 1001f090 f   xthrow.obj
 0001:0001e0d0       ??1length_error@std@@UAE@XZ 1001f0d0 f i xthrow.obj
 0001:0001e0f0       ??0length_error@std@@QAE@ABV01@@Z 1001f0f0 f i xthrow.obj
 0001:0001e11e       _ImmAssociateContext@8     1001f11e f   imm32:IMM32.dll
 0001:0001e124       _ImmGetCandidateListA@16   1001f124 f   imm32:IMM32.dll
 0001:0001e12a       _ImmGetCompositionStringA@16 1001f12a f   imm32:IMM32.dll
 0001:0001e130       _ImmEscapeA@16             1001f130 f   imm32:IMM32.dll
 0001:0001e136       _ImmIsIME@4                1001f136 f   imm32:IMM32.dll
 0001:0001e13c       _ImmNotifyIME@16           1001f13c f   imm32:IMM32.dll
 0001:0001e142       ??_U@YAPAXI@Z              1001f142 f   libcpmt:newaop.obj
 0001:0001e14d       ??3@YAXPAX@Z               1001f14d f   LIBCMT:delete.obj
 0001:0001e158       ??2@YAPAXI@Z               1001f158 f   LIBCMT:new.obj
 0001:0001e1d8       ?_JumpToContinuation@@YGXPAXPAUEHRegistrationNode@@@Z 1001f1d8 f   LIBCMT:_trnsctrl_.obj
 0001:0001e20a       ?_CallMemberFunction2@@YGXPAX00H@Z 1001f20a f   LIBCMT:_trnsctrl_.obj
 0001:0001e20a       ?_CallMemberFunction1@@YGXPAX00@Z 1001f20a f   LIBCMT:_trnsctrl_.obj
 0001:0001e20a       ?_CallMemberFunction0@@YGXPAX0@Z 1001f20a f   LIBCMT:_trnsctrl_.obj
 0001:0001e211       ?_UnwindNestedFrames@@YGXPAUEHRegistrationNode@@PAUEHExceptionRecord@@@Z 1001f211 f   LIBCMT:_trnsctrl_.obj
 0001:0001e265       ___CxxFrameHandler3        1001f265 f   LIBCMT:_trnsctrl_.obj
 0001:0001e2ce       ?_CallSETranslator@@YAHPAUEHExceptionRecord@@PAUEHRegistrationNode@@PAX2PBU_s_FuncInfo@@H1@Z 1001f2ce f   LIBCMT:_trnsctrl_.obj
 0001:0001e444       ?_GetRangeOfTrysToCheck@@YAPBU_s_TryBlockMapEntry@@PBU_s_FuncInfo@@HHPAI1@Z 1001f444 f   LIBCMT:_trnsctrl_.obj
 0001:0001e4b7       __CreateFrameInfo          1001f4b7 f   LIBCMT:_trnsctrl_.obj
 0001:0001e4e3       __IsExceptionObjectToBeDestroyed 1001f4e3 f   LIBCMT:_trnsctrl_.obj
 0001:0001e50a       __FindAndUnlinkFrame       1001f50a f   LIBCMT:_trnsctrl_.obj
 0001:0001e55c       ?_CallCatchBlock2@@YAPAXPAUEHRegistrationNode@@PBU_s_FuncInfo@@PAXHK@Z 1001f55c f   LIBCMT:_trnsctrl_.obj
 0001:0001e5bc       @__security_check_cookie@4 1001f5bc f   LIBCMT:secchk.obj
 0001:0001e5cb       __RTC_InitBase             1001f5cb f   LIBCMT:_init_.obj
 0001:0001e5f1       __RTC_Shutdown             1001f5f1 f   LIBCMT:_init_.obj
 0001:0001e610       _memset                    1001f610 f   LIBCMT:memset.obj
 0001:0001e68a       @_RTC_Check_4_to_1@4       1001f68a f   LIBCMT:_convert_.obj
 0001:0001e6b2       @_RTC_Check_4_to_2@4       1001f6b2 f   LIBCMT:_convert_.obj
 0001:0001e6e0       __except_handler4          1001f6e0 f   LIBCMT:chandler4.obj
 0001:0001e86f       __cfltcvt_init             1001f86f f   LIBCMT:_fpinit_.obj
 0001:0001e8cf       __fpmath                   1001f8cf f   LIBCMT:_fpinit_.obj
 0001:0001e8f0       _memcpy                    1001f8f0 f   LIBCMT:memcpy.obj
 0001:0001ec51       _sprintf_s                 1001fc51 f   LIBCMT:sprintf.obj
 0001:0001ec6f       ??1type_info@@UAE@XZ       1001fc6f f   LIBCMT:typinfo.obj
 0001:0001ec7f       ??_Gtype_info@@UAEPAXI@Z   1001fc7f f i LIBCMT:typinfo.obj
 0001:0001ec7f       ??_Etype_info@@UAEPAXI@Z   1001fc7f f i LIBCMT:typinfo.obj
 0001:0001eca0       ??8type_info@@QBE_NABV0@@Z 1001fca0 f   LIBCMT:typinfo.obj
 0001:0001ecc0       _strlen                    1001fcc0 f   LIBCMT:strlen.obj
 0001:0001ed4b       ??0_LocaleUpdate@@QAE@PAUlocaleinfo_struct@@@Z 1001fd4b f i LIBCMT:strftime.obj
 0001:0001edd2       __freea                    1001fdd2 f i LIBCMT:strftime.obj
 0001:0001f69f       __Strftime_l               1002069f f   LIBCMT:strftime.obj
 0001:0001f82b       _strftime                  1002082b f   LIBCMT:strftime.obj
 0001:0001f84a       __localtime64_s            1002084a f   LIBCMT:loctim64.obj
 0001:0001fad2       __time64                   10020ad2 f   LIBCMT:time64.obj
 0001:0001fb30       _strstr                    10020b30 f   LIBCMT:strstr.obj
 0001:0001fbd0       _strchr                    10020bd0 f   LIBCMT:strchr.obj
 0001:0001fbd6       ___from_strstr_to_strchr   10020bd6     LIBCMT:strchr.obj
 0001:0001fc8e       _memcmp                    10020c8e f   LIBCMT:memcmp.obj
 0001:000211e2       __CxxThrowException@8      100221e2 f   LIBCMT:throw.obj
 0001:00021230       __ftol2_sse                10022230 f   LIBCMT:ftol2.obj
 0001:00021239       __ftol2_pentium4           10022239 f   LIBCMT:ftol2.obj
 0001:0002124c       __ftol2_sse_excpt          1002224c f   LIBCMT:ftol2.obj
 0001:00021266       __ftol2                    10022266 f   LIBCMT:ftol2.obj
 0001:000212e0       _memmove                   100222e0 f   LIBCMT:memmove.obj
 0001:00021641       ??0exception@std@@QAE@ABQBDH@Z 10022641 f   LIBCMT:stdexcpt.obj
 0001:0002165e       ?what@exception@std@@UBEPBDXZ 1002265e f   LIBCMT:stdexcpt.obj
 0001:0002166b       ?_Copy_str@exception@std@@AAEXPBD@Z 1002266b f   LIBCMT:stdexcpt.obj
 0001:000216ab       ?_Tidy@exception@std@@AAEXXZ 100226ab f   LIBCMT:stdexcpt.obj
 0001:000216c9       ??0exception@std@@QAE@ABQBD@Z 100226c9 f   LIBCMT:stdexcpt.obj
 0001:000216f0       ??4exception@std@@QAEAAV01@ABV01@@Z 100226f0 f   LIBCMT:stdexcpt.obj
 0001:00021725       ??1exception@std@@UAE@XZ   10022725 f   LIBCMT:stdexcpt.obj
 0001:00021730       ??_Eexception@std@@UAEPAXI@Z 10022730 f i LIBCMT:stdexcpt.obj
 0001:00021730       ??_Gexception@std@@UAEPAXI@Z 10022730 f i LIBCMT:stdexcpt.obj
 0001:00021757       ??0exception@std@@QAE@ABV01@@Z 10022757 f   LIBCMT:stdexcpt.obj
 0001:0002177c       __vsnprintf_helper         1002277c f   LIBCMT:vsnprnc.obj
 0001:00021846       __vsprintf_s_l             10022846 f   LIBCMT:vsnprnc.obj
 0001:000218bd       _vsprintf_s                100228bd f   LIBCMT:vsnprnc.obj
 0001:000218da       _atol                      100228da f   LIBCMT:atox.obj
 0001:000218f0       _atoi                      100228f0 f   LIBCMT:atox.obj
 0001:000218fb       _strcpy_s                  100228fb f   LIBCMT:strcpy_s.obj
 0001:0002195a       _strcat_s                  1002295a f   LIBCMT:strcat_s.obj
 0001:000219c7       __splitpath_s              100229c7 f   LIBCMT:splitpath_s.obj
 0001:00021bc4       ?_strlwr_s_l_stat@@YAHPADIPAUlocaleinfo_struct@@@Z 10022bc4 f   LIBCMT:strlwr.obj
 0001:00021d42       __strlwr_s_l               10022d42 f   LIBCMT:strlwr.obj
 0001:00021d76       __strlwr_s                 10022d76 f   LIBCMT:strlwr.obj
 0001:00021fb8       _strtol                    10022fb8 f   LIBCMT:strtol.obj
 0001:00021fe3       __strtol_l                 10022fe3 f   LIBCMT:strtol.obj
 0001:00022000       _strncmp                   10023000 f   LIBCMT:strncmp.obj
 0001:00022234       __strupr_s_l               10023234 f   LIBCMT:strupr.obj
 0001:00022269       __strupr_s                 10023269 f   LIBCMT:strupr.obj
 0001:00022280       _strcmp                    10023280 f   LIBCMT:strcmp.obj
 0001:00022308       _free                      10023308 f   LIBCMT:free.obj
 0001:00022342       _malloc                    10023342 f   LIBCMT:malloc.obj
 0001:000223d6       _memcpy_s                  100233d6 f   LIBCMT:memcpy_s.obj
 0001:0002244b       _strnlen                   1002344b f   LIBCMT:strlen_s.obj
 0001:00022468       ??_V@YAXPAX@Z              10023468 f   LIBCMT:delete2.obj
 0001:00022473       _abs                       10023473 f   LIBCMT:abs.obj
 0001:00022490       _sin                       10023490 f   LIBCMT:_sin_.obj
 0001:000224d0       __CIsin                    100234d0 f   LIBCMT:_sin_.obj
 0001:0002250b       __CIsin_default            1002350b f   LIBCMT:_sin_.obj
 0001:0002251f       __sin_default              1002351f     LIBCMT:_sin_.obj
 0001:000225c0       _cos                       100235c0 f   LIBCMT:_cos_.obj
 0001:00022600       __CIcos                    10023600 f   LIBCMT:_cos_.obj
 0001:0002263b       __CIcos_default            1002363b f   LIBCMT:_cos_.obj
 0001:0002264f       __cos_default              1002364f     LIBCMT:_cos_.obj
 0001:000226e9       ??_L@YGXPAXIHP6EX0@Z1@Z    100236e9 f   LIBCMT:ehvecctr.obj
 0001:0002274e       ?__ArrayUnwind@@YGXPAXIHP6EX0@Z@Z 1002374e f   LIBCMT:ehvecdtr.obj
 0001:000227ac       ??_M@YGXPAXIHP6EX0@Z@Z     100237ac f   LIBCMT:ehvecdtr.obj
 0001:0002280f       __CRT_INIT@12              1002380f f   LIBCMT:dllcrt0.obj
 0001:00022a69       __DllMainCRTStartup@12     10023a69 f   LIBCMT:dllcrt0.obj
 0001:00022b42       ___onexitinit              10023b42 f   LIBCMT:onexit.obj
 0001:00022b73       __onexit                   10023b73 f   LIBCMT:onexit.obj
 0001:00022baf       _atexit                    10023baf f   LIBCMT:onexit.obj
 0001:00022bc6       __initp_heap_handler       10023bc6 f   LIBCMT:handler.obj
 0001:00022bd5       __callnewh                 10023bd5 f   LIBCMT:handler.obj
 0001:00022bfd       ??1bad_exception@std@@UAE@XZ 10023bfd f i LIBCMT:frame.obj
 0001:00022c08       ??_Ebad_exception@std@@UAEPAXI@Z 10023c08 f i LIBCMT:frame.obj
 0001:00022c08       ??_Gbad_exception@std@@UAEPAXI@Z 10023c08 f i LIBCMT:frame.obj
 0001:00022c2f       ___TypeMatch               10023c2f f   LIBCMT:frame.obj
 0001:00022c8e       ___FrameUnwindFilter       10023c8e f   LIBCMT:frame.obj
 0001:00022cdd       ___FrameUnwindToState      10023cdd f   LIBCMT:frame.obj
 0001:00022dfe       ___DestructExceptionObject 10023dfe f   LIBCMT:frame.obj
 0001:00022e53       ___AdjustPointer           10023e53 f   LIBCMT:frame.obj
 0001:000230dc       ___BuildCatchObjectHelper  100240dc f   LIBCMT:frame.obj
 0001:0002325b       ___BuildCatchObject        1002425b f   LIBCMT:frame.obj
 0001:000237d7       ??0bad_exception@std@@QAE@ABV01@@Z 100247d7 f i LIBCMT:frame.obj
 0001:000237f4       ___InternalCxxFrameHandler 100247f4 f   LIBCMT:frame.obj
 0001:000238da       __encoded_null             100248da f   LIBCMT:tidtable.obj
 0001:000238e3       ___crtTlsAlloc@4           100248e3 f   LIBCMT:tidtable.obj
 0001:000238ec       ___set_flsgetvalue         100248ec f   LIBCMT:tidtable.obj
 0001:00023920       __mtterm                   10024920 f   LIBCMT:tidtable.obj
 0001:0002395d       __initptd                  1002495d f   LIBCMT:tidtable.obj
 0001:00023a11       __getptd_noexit            10024a11 f   LIBCMT:tidtable.obj
 0001:00023a8a       __getptd                   10024a8a f   LIBCMT:tidtable.obj
 0001:00023aa4       __freefls@4                10024aa4 f   LIBCMT:tidtable.obj
 0001:00023bd3       __freeptd                  10024bd3 f   LIBCMT:tidtable.obj
 0001:00023c41       __mtinit                   10024c41 f   LIBCMT:tidtable.obj
 0001:00023dbc       ?terminate@@YAXXZ          10024dbc f   LIBCMT:hooks.obj
 0001:00023df5       ?unexpected@@YAXXZ         10024df5 f   LIBCMT:hooks.obj
 0001:00023e08       ?_inconsistency@@YAXXZ     10024e08 f   LIBCMT:hooks.obj
 0001:00023e40       __initp_eh_hooks           10024e40 f   LIBCMT:hooks.obj
 0001:00023e60       __CallSettingFrame@12      10024e60 f   LIBCMT:lowhelpr.obj
 0001:00023e87       __NLG_Return               10024e87     LIBCMT:lowhelpr.obj
 0001:00023eac       ___report_gsfailure        10024eac f   LIBCMT:gs_report.obj
 0001:00023fb2       __RTC_SetErrorFuncW        10024fb2 f   LIBCMT:_userapi_.obj
 0001:00023fce       ?_RTC_GetErrorFunc@@YAP6AHHPBDH00ZZPBX@Z 10024fce f   LIBCMT:_userapi_.obj
 0001:00023fd4       ?_RTC_GetErrorFuncW@@YAP6AHHPB_WH00ZZPBX@Z 10024fd4 f   LIBCMT:_userapi_.obj
 0001:00023fda       __VEC_memzero              10024fda f   LIBCMT:p4_memset.obj
 0001:00024094       ___sse2_available_init     10025094 f   LIBCMT:cpu_disp.obj
 0001:0002435c       ?_RTC_Failure@@YAXPAXH@Z   1002535c f   LIBCMT:_error_.obj
 0001:000243a0       __local_unwind4            100253a0 f   LIBCMT:exsup4.obj
 0001:00024476       __seh_longjmp_unwind4@4    10025476 f   LIBCMT:exsup4.obj
 0001:00024492       @_EH4_CallFilterFunc@8     10025492 f   LIBCMT:exsup4.obj
 0001:000244a9       @_EH4_TransferToHandler@8  100254a9 f   LIBCMT:exsup4.obj
 0001:000244c2       @_EH4_GlobalUnwind2@8      100254c2 f   LIBCMT:exsup4.obj
 0001:000244db       @_EH4_LocalUnwind@16       100254db f   LIBCMT:exsup4.obj
 0001:00024500       __ValidateImageBase        10025500 f   LIBCMT:pesect.obj
 0001:00024540       __FindPESection            10025540 f   LIBCMT:pesect.obj
 0001:00024590       __IsNonwritableInCurrentImage 10025590 f   LIBCMT:pesect.obj
 0001:0002464c       __forcdecpt_l              1002564c f   LIBCMT:cvt.obj
 0001:000246c0       __cropzeros_l              100256c0 f   LIBCMT:cvt.obj
 0001:00024742       __positive                 10025742 f   LIBCMT:cvt.obj
 0001:0002475e       __fassign_l                1002575e f   LIBCMT:cvt.obj
 0001:000247a0       __fassign                  100257a0 f   LIBCMT:cvt.obj
 0001:000247d9       __forcdecpt                100257d9 f   LIBCMT:cvt.obj
 0001:000247ec       __cropzeros                100257ec f   LIBCMT:cvt.obj
 0001:00024960       __cftoe_l                  10025960 f   LIBCMT:cvt.obj
 0001:00024a27       __cftoe                    10025a27 f   LIBCMT:cvt.obj
 0001:00024a47       __cftoa_l                  10025a47 f   LIBCMT:cvt.obj
 0001:00024ec0       __cftof_l                  10025ec0 f   LIBCMT:cvt.obj
 0001:00024f81       __cftog_l                  10025f81 f   LIBCMT:cvt.obj
 0001:0002506e       __cfltcvt_l                1002606e f   LIBCMT:cvt.obj
 0001:000250f6       __cfltcvt                  100260f6 f   LIBCMT:cvt.obj
 0001:00025119       __initp_misc_cfltcvt_tab   10026119 f   LIBCMT:cmiscdat.obj
 0001:0002513c       __setdefaultprecision      1002613c f   LIBCMT:fp8.obj
 0001:00025164       __VEC_memcpy               10026164 f   LIBCMT:p4_memcpy.obj
 0001:00025267       __flsbuf                   10026267 f   LIBCMT:_flsbuf.obj
 0001:000253cb       __initp_misc_invarg        100263cb f   LIBCMT:invarg.obj
 0001:000253da       __call_reportfault         100263da f   LIBCMT:invarg.obj
 0001:00025503       __invoke_watson            10026503 f   LIBCMT:invarg.obj
 0001:00025528       __invalid_parameter        10026528 f   LIBCMT:invarg.obj
 0001:00025555       __invalid_parameter_noinfo 10026555 f   LIBCMT:invarg.obj
 0001:00025565       __get_errno_from_oserr     10026565 f   LIBCMT:dosmap.obj
 0001:000255a7       __errno                    100265a7 f   LIBCMT:dosmap.obj
 0001:000255ba       ___doserrno                100265ba f   LIBCMT:dosmap.obj
 0001:000255cd       __dosmaperr                100265cd f   LIBCMT:dosmap.obj
 0001:000255f0       ?_Type_info_dtor@type_info@@CAXPAV1@@Z 100265f0 f   LIBCMT:typname.obj
 0001:00025883       ___updatetmbcinfo          10026883 f   LIBCMT:mbctype.obj
 0001:000259a3       __setmbcp_nolock           100269a3 f   LIBCMT:mbctype.obj
 0001:00025b8c       __setmbcp                  10026b8c f   LIBCMT:mbctype.obj
 0001:00025d26       ___initmbctable            10026d26 f   LIBCMT:mbctype.obj
 0001:00025d44       ___addlocaleref            10026d44 f   LIBCMT:localref.obj
 0001:00025dd3       ___removelocaleref         10026dd3 f   LIBCMT:localref.obj
 0001:00025e6c       ___freetlocinfo            10026e6c f   LIBCMT:localref.obj
 0001:00025fb7       __updatetlocinfoEx_nolock  10026fb7 f   LIBCMT:localref.obj
 0001:00026004       ___updatetlocinfo          10027004 f   LIBCMT:localref.obj
 0001:0002607d       __malloc_crt               1002707d f   LIBCMT:crtheap.obj
 0001:000260c2       __calloc_crt               100270c2 f   LIBCMT:crtheap.obj
 0001:0002610e       __realloc_crt              1002710e f   LIBCMT:crtheap.obj
 0001:0002615c       __recalloc_crt             1002715c f   LIBCMT:crtheap.obj
 0001:000261ae       __get_daylight             100271ae f   LIBCMT:timeset.obj
 0001:000261db       __get_dstbias              100271db f   LIBCMT:timeset.obj
 0001:00026208       __get_timezone             10027208 f   LIBCMT:timeset.obj
 0001:00026235       ___daylight                10027235 f   LIBCMT:timeset.obj
 0001:0002623b       ___dstbias                 1002723b f   LIBCMT:timeset.obj
 0001:00026241       ___timezone                10027241 f   LIBCMT:timeset.obj
 0001:00026247       ___tzname                  10027247 f   LIBCMT:timeset.obj
 0001:0002692e       ___tzset                   1002792e f   LIBCMT:tzset.obj
 0001:0002697d       __isindst                  1002797d f   LIBCMT:tzset.obj
 0001:000269be       ___ascii_stricmp           100279be f   LIBCMT:stricmp.obj
 0001:000269f7       __isleadbyte_l             100279f7 f i LIBCMT:_wctype.obj
 0001:00026a2f       _isleadbyte                10027a2f f i LIBCMT:_wctype.obj
 0001:00026a50       __alloca_probe_16          10027a50 f   LIBCMT:alloca16.obj
 0001:00026a66       __alloca_probe_8           10027a66     LIBCMT:alloca16.obj
 0001:00026a7c       __gmtime64_s               10027a7c f   LIBCMT:gmtime64.obj
 0001:00026cc0       __alldiv                   10027cc0 f   LIBCMT:lldiv.obj
 0001:00026d70       __allrem                   10027d70 f   LIBCMT:llrem.obj
 0001:00026e30       __aulldiv                  10027e30 f   LIBCMT:ulldiv.obj
 0001:00026f3f       __output_s_l               10027f3f f   LIBCMT:outputs.obj
 0001:00027b62       __ismbblead                10028b62 f   LIBCMT:ismbbyte.obj
 0001:00027b7a       _strncpy_s                 10028b7a f   LIBCMT:strncpy_s.obj
 0001:00027e16       ___crtLCMapStringA         10028e16 f   LIBCMT:a_map.obj
 0001:00027e5c       __isctype_l                10028e5c f   LIBCMT:isctype.obj
 0001:00027f14       __heap_init                10028f14 f   LIBCMT:heapinit.obj
 0001:00027f32       __heap_term                10028f32 f   LIBCMT:heapinit.obj
 0001:00027f46       ___crtCorExitProcess       10028f46 f   LIBCMT:crt0dat.obj
 0001:00027f71       ___crtExitProcess          10028f71 f   LIBCMT:crt0dat.obj
 0001:00027f89       __lockexit                 10028f89 f   LIBCMT:crt0dat.obj
 0001:00027f92       __unlockexit               10028f92 f   LIBCMT:crt0dat.obj
 0001:00027f9b       __init_pointers            10028f9b f   LIBCMT:crt0dat.obj
 0001:00027fce       __initterm_e               10028fce f   LIBCMT:crt0dat.obj
 0001:00027ff2       __cinit                    10028ff2 f   LIBCMT:crt0dat.obj
 0001:000281c9       __exit                     100291c9 f   LIBCMT:crt0dat.obj
 0001:000281df       __cexit                    100291df f   LIBCMT:crt0dat.obj
 0001:000281ee       __amsg_exit                100291ee f   LIBCMT:crt0dat.obj
 0001:0002820c       __GET_RTERRMSG             1002920c f   LIBCMT:crt0msg.obj
 0001:00028232       __NMSG_WRITE               10029232 f   LIBCMT:crt0msg.obj
 0001:000283e1       __FF_MSGBANNER             100293e1 f   LIBCMT:crt0msg.obj
 0001:0002841a       __sse2_mathfcns_init       1002941a f   LIBCMT:_mathfcns_.obj
 0001:00028430       __CIsin_pentium4           10029430 f   LIBCMT:_sin_pentium4_.obj
 0001:00028448       __sin_pentium4             10029448     LIBCMT:_sin_pentium4_.obj
 0001:00028600       __trandisp1                10029600 f   LIBCMT:_87disp_.obj
 0001:00028667       __trandisp2                10029667 f   LIBCMT:_87disp_.obj
 0001:000286f3       __rttospopde               100296f3     LIBCMT:_87disp_.obj
 0001:000286f8       __rttospop                 100296f8     LIBCMT:_87disp_.obj
 0001:000286fa       __rtnospop                 100296fa     LIBCMT:_87disp_.obj
 0001:000286fc       __rttosnpop                100296fc     LIBCMT:_87disp_.obj
 0001:000286fd       __rtnospopde               100296fd     LIBCMT:_87disp_.obj
 0001:00028704       __rtzeropop                10029704     LIBCMT:_87disp_.obj
 0001:00028706       __rtzeronpop               10029706     LIBCMT:_87disp_.obj
 0001:0002870b       __rtonepop                 1002970b     LIBCMT:_87disp_.obj
 0001:0002870d       __rtonenpop                1002970d     LIBCMT:_87disp_.obj
 0001:00028712       __tosnan1                  10029712     LIBCMT:_87disp_.obj
 0001:0002873d       __nosnan2                  1002973d     LIBCMT:_87disp_.obj
 0001:0002873f       __tosnan2                  1002973f     LIBCMT:_87disp_.obj
 0001:00028767       __nan2                     10029767     LIBCMT:_87disp_.obj
 0001:000287a6       __rtindfpop                100297a6     LIBCMT:_87disp_.obj
 0001:000287a8       __rtindfnpop               100297a8     LIBCMT:_87disp_.obj
 0001:000287b9       __rttosnpopde              100297b9     LIBCMT:_87disp_.obj
 0001:000287c3       __rtchsifneg               100297c3     LIBCMT:_87disp_.obj
 0001:000287d0       __twoToTOS                 100297d0 f   LIBCMT:_common_.obj
 0001:000287e5       __load_CW                  100297e5 f   LIBCMT:_common_.obj
 0001:000287fc       __convertTOStoQNaN         100297fc f   LIBCMT:_common_.obj
 0001:00028815       __fload_withFB             10029815 f   LIBCMT:_common_.obj
 0001:00028858       __checkTOS_withFB          10029858 f   LIBCMT:_common_.obj
 0001:0002886e       __fast_exit                1002986e f   LIBCMT:_common_.obj
 0001:0002887b       __math_exit                1002987b f   LIBCMT:_common_.obj
 0001:000288a5       __check_overflow_exit      100298a5 f   LIBCMT:_common_.obj
 0001:000288b9       __check_range_exit         100298b9 f   LIBCMT:_common_.obj
 0001:00028960       __startTwoArgErrorHandling 10029960 f   LIBCMT:_genexcep_.obj
 0001:00028977       __startOneArgErrorHandling 10029977 f   LIBCMT:_genexcep_.obj
 0001:000289c0       __CIcos_pentium4           100299c0 f   LIBCMT:_cos_pentium4_.obj
 0001:000289d8       __cos_pentium4             100299d8     LIBCMT:_cos_pentium4_.obj
 0001:00028b70       __SEH_prolog4              10029b70 f   LIBCMT:sehprolg4.obj
 0001:00028bb5       __SEH_epilog4              10029bb5 f   LIBCMT:sehprolg4.obj
 0001:00028bc9       __ioinit                   10029bc9 f   LIBCMT:ioinit.obj
 0001:00028e0e       __ioterm                   10029e0e f   LIBCMT:ioinit.obj
 0001:00028e61       __setenvp                  10029e61 f   LIBCMT:stdenvp.obj
 0001:000290d7       __setargv                  1002a0d7 f   LIBCMT:stdargv.obj
 0001:00029192       ___crtGetEnvironmentStringsA 1002a192 f   LIBCMT:a_env.obj
 0001:00029229       __RTC_Initialize           1002a229 f   LIBCMT:_initsect_.obj
 0001:0002924f       __RTC_Terminate            1002a24f f   LIBCMT:_initsect_.obj
 0001:00029275       __XcptFilter               1002a275 f   LIBCMT:winxfltr.obj
 0001:000293bf       ___CppXcptFilter           1002a3bf f   LIBCMT:winxfltr.obj
 0001:000293df       ___security_init_cookie    1002a3df f   LIBCMT:gs_support.obj
 0001:0002947a       __msize                    1002a47a f   LIBCMT:msize.obj
 0001:000294ad       __mtinitlocks              1002a4ad f   LIBCMT:mlock.obj
 0001:000294f7       __mtdeletelocks            1002a4f7 f   LIBCMT:mlock.obj
 0001:0002954e       __unlock                   1002a54e f   LIBCMT:mlock.obj
 0001:00029565       __mtinitlocknum            1002a565 f   LIBCMT:mlock.obj
 0001:00029627       __lock                     1002a627 f   LIBCMT:mlock.obj
 0001:0002965a       __EH_prolog3_catch         1002a65a f   LIBCMT:ehprolg3.obj
 0001:00029690       ?_ValidateRead@@YAHPBXI@Z  1002a690 f   LIBCMT:validate.obj
 0001:00029690       ?_ValidateWrite@@YAHPAXI@Z 1002a690 f   LIBCMT:validate.obj
 0001:00029690       ?_ValidateExecute@@YAHP6GHXZ@Z 1002a690 f   LIBCMT:validate.obj
 0001:000296a2       _abort                     1002a6a2 f   LIBCMT:abort.obj
 0001:000296e0       __global_unwind2           1002a6e0 f   LIBCMT:exsup.obj
 0001:00029745       __local_unwind2            1002a745 f   LIBCMT:exsup.obj
 0001:000297c9       __abnormal_termination     1002a7c9 f   LIBCMT:exsup.obj
 0001:000297ec       __NLG_Notify1              1002a7ec f   LIBCMT:exsup.obj
 0001:000297f5       __NLG_Notify               1002a7f5 f   LIBCMT:exsup.obj
 0001:0002980c       __NLG_Dispatch             1002a80c     LIBCMT:exsup.obj
 0001:0002980c       __NLG_Dispatch2            1002a80c     LIBCMT:exsup.obj
 0001:00029814       __NLG_Call                 1002a814 f   LIBCMT:exsup.obj
 0001:00029816       __NLG_Return2              1002a816     LIBCMT:exsup.obj
 0001:00029817       __crt_debugger_hook        1002a817 f   LIBCMT:dbghook.obj
 0001:000299ab       ?_RTC_GetSrcLine@@YAHPAEPA_WKPAH1K@Z 1002a9ab f   LIBCMT:_pdblkup_.obj
 0001:00029c30       _strrchr                   1002ac30 f   LIBCMT:strrchr.obj
 0001:00029c5d       __isdigit_l                1002ac5d f i LIBCMT:_ctype.obj
 0001:00029cae       _isdigit                   1002acae f i LIBCMT:_ctype.obj
 0001:00029cdc       __tolower_l                1002acdc f   LIBCMT:tolower.obj
 0001:00029df1       _tolower                   1002adf1 f   LIBCMT:tolower.obj
 0001:00029e1d       __atodbl_l                 1002ae1d f   LIBCMT:atodbl.obj
 0001:00029ec5       __atoflt_l                 1002aec5 f   LIBCMT:atodbl.obj
 0001:00029f6d       __fptostr                  1002af6d f   LIBCMT:_fptostr.obj
 0001:0002a020       ___dtold                   1002b020 f   LIBCMT:_cfout_.obj
 0001:0002a0d3       __fltout2                  1002b0d3 f   LIBCMT:_cfout_.obj
 0001:0002a170       __alldvrm                  1002b170 f   LIBCMT:lldvrm.obj
 0001:0002a250       __aullshr                  1002b250 f   LIBCMT:ullshr.obj
 0001:0002a26f       __fptrap                   1002b26f f   LIBCMT:crt0fp.obj
 0001:0002a278       __controlfp_s              1002b278 f   LIBCMT:_contrlfp_.obj
 0001:0002a2d7       __lseeki64_nolock          1002b2d7 f   LIBCMT:lseeki64.obj
 0001:0002a35c       __lseeki64                 1002b35c f   LIBCMT:lseeki64.obj
 0001:0002a446       __write_nolock             1002b446 f   LIBCMT:write.obj
 0001:0002ab43       __write                    1002bb43 f   LIBCMT:write.obj
 0001:0002ac17       __getbuf                   1002bc17 f   LIBCMT:_getbuf.obj
 0001:0002ac60       __isatty                   1002bc60 f   LIBCMT:isatty.obj
 0001:0002acb6       ___iob_func                1002bcb6 f   LIBCMT:_file.obj
 0001:0002acbc       ___initstdio               1002bcbc f   LIBCMT:_file.obj
 0001:0002ad6d       ___endstdio                1002bd6d f   LIBCMT:_file.obj
 0001:0002ad8d       __lock_file                1002bd8d f   LIBCMT:_file.obj
 0001:0002adce       __lock_file2               1002bdce f   LIBCMT:_file.obj
 0001:0002ae00       __unlock_file              1002be00 f   LIBCMT:_file.obj
 0001:0002ae3c       __unlock_file2             1002be3c f   LIBCMT:_file.obj
 0001:0002ae6b       __fileno                   1002be6b f   LIBCMT:fileno.obj
 0001:0002ae91       __get_printf_count_output  1002be91 f   LIBCMT:printf.obj
 0001:0002aea7       __wctomb_s_l               1002bea7 f   LIBCMT:wctomb.obj
 0001:0002affc       _wctomb_s                  1002bffc f   LIBCMT:wctomb.obj
 0001:0002b020       __aulldvrm                 1002c020 f   LIBCMT:ulldvrm.obj
 0001:0002b19c       ___crtGetStringTypeA       1002c19c f   LIBCMT:a_str.obj
 0001:0002b1dc       ___free_lc_time            1002c1dc f   LIBCMT:inittime.obj
 0001:0002b553       ___free_lconv_num          1002c553 f   LIBCMT:initnum.obj
 0001:0002b5bc       ___free_lconv_mon          1002c5bc f   LIBCMT:initmon.obj
 0001:0002b6ba       __calloc_impl              1002c6ba f   LIBCMT:calloc_impl.obj
 0001:0002b73c       _realloc                   1002c73c f   LIBCMT:realloc.obj
 0001:0002b7e9       __recalloc                 1002c7e9 f   LIBCMT:recalloc.obj
 0001:0002b857       __getenv_helper_nolock     1002c857 f   LIBCMT:getenv.obj
 0001:0002b8de       ____lc_codepage_func       1002c8de f   LIBCMT:initctyp.obj
 0001:0002b910       __alloca_probe             1002c910     LIBCMT:chkstk.obj
 0001:0002b910       __chkstk                   1002c910 f   LIBCMT:chkstk.obj
 0001:0002b940       __allmul                   1002c940 f   LIBCMT:llmul.obj
 0001:0002b980       _strcspn                   1002c980 f   LIBCMT:strcspn.obj
 0001:0002b9d0       _strpbrk                   1002c9d0 f   LIBCMT:strpbrk.obj
 0001:0002ba10       __initp_misc_winsig        1002ca10 f   LIBCMT:winsig.obj
 0001:0002ba65       ___get_sigabrt             1002ca65 f   LIBCMT:winsig.obj
 0001:0002ba72       _raise                     1002ca72 f   LIBCMT:winsig.obj
 0001:0002bc15       __initp_misc_rand_s        1002cc15 f   LIBCMT:rand_s.obj
 0001:0002bc24       __initp_misc_purevirt      1002cc24 f   LIBCMT:inithelp.obj
 0001:0002bc33       ___crtMessageBoxW          1002cc33 f   LIBCMT:crtmboxw.obj
 0001:0002bd9f       _wcscat_s                  1002cd9f f   LIBCMT:wcscat_s.obj
 0001:0002be14       _wcsncpy_s                 1002ce14 f   LIBCMT:wcsncpy_s.obj
 0001:0002bee1       _wcslen                    1002cee1 f   LIBCMT:wcslen.obj
 0001:0002befc       _wcscpy_s                  1002cefc f   LIBCMT:wcscpy_s.obj
 0001:0002bf5f       __set_error_mode           1002cf5f f   LIBCMT:errmode.obj
 0001:0002bf9e       __87except                 1002cf9e f   LIBCMT:_87except_.obj
 0001:0002c0dd       __ld12tod                  1002d0dd f   LIBCMT:_intrncvt_.obj
 0001:0002c62e       __ld12tof                  1002d62e f   LIBCMT:_intrncvt_.obj
 0001:0002cb7f       ___strgtold12_l            1002db7f f   LIBCMT:_strgtold_.obj
 0001:0002d25b       _$I10_OUTPUT               1002e25b f   LIBCMT:_x10fout_.obj
 0001:0002dc81       __control87                1002ec81 f i LIBCMT:_ieee87_.obj
 0001:0002df93       __free_osfhnd              1002ef93 f   LIBCMT:osfinfo.obj
 0001:0002e019       __get_osfhandle            1002f019 f   LIBCMT:osfinfo.obj
 0001:0002e082       ___lock_fhandle            1002f082 f   LIBCMT:osfinfo.obj
 0001:0002e121       __unlock_fhandle           1002f121 f   LIBCMT:osfinfo.obj
 0001:0002e148       __putwch_nolock            1002f148 f   LIBCMT:putwch.obj
 0001:0002e18a       __mbtowc_l                 1002f18a f   LIBCMT:mbtowc.obj
 0001:0002e2a0       _mbtowc                    1002f2a0 f   LIBCMT:mbtowc.obj
 0001:0002e2ba       __fcloseall                1002f2ba f   LIBCMT:closeall.obj
 0001:0002e356       __flush                    1002f356 f   LIBCMT:fflush.obj
 0001:0002e3be       __fflush_nolock            1002f3be f   LIBCMT:fflush.obj
 0001:0002e4e0       __flushall                 1002f4e0 f   LIBCMT:fflush.obj
 0001:0002e4e9       __mbsnbicoll_l             1002f4e9 f   LIBCMT:mbsnbico.obj
 0001:0002e5c7       __mbsnbicoll               1002f5c7 f   LIBCMT:mbsnbico.obj
 0001:0002e5e1       ___wtomb_environ           1002f5e1 f   LIBCMT:wtombenv.obj
 0001:0002e678       __strnicmp_l               1002f678 f   LIBCMT:strnicmp.obj
 0001:0002e75a       __raise_exc_ex             1002f75a f   LIBCMT:_fpexcept_.obj
 0001:0002ea36       __raise_exc                1002fa36 f   LIBCMT:_fpexcept_.obj
 0001:0002ea59       __handle_exc               1002fa59 f   LIBCMT:_fpexcept_.obj
 0001:0002ec3d       __set_errno_from_matherr   1002fc3d f   LIBCMT:_fpexcept_.obj
 0001:0002ec6a       __matherr                  1002fc6a f   LIBCMT:_matherr_.obj
 0001:0002ec6a       __CRT_RTC_INITW            1002fc6a f   LIBCMT:chkesp.obj
 0001:0002ec6d       __statfp                   1002fc6d f   LIBCMT:_fpctrl_.obj
 0001:0002ec7d       __clrfp                    1002fc7d f   LIBCMT:_fpctrl_.obj
 0001:0002ec8e       __ctrlfp                   1002fc8e f   LIBCMT:_fpctrl_.obj
 0001:0002ecb9       __set_statfp               1002fcb9 f   LIBCMT:_fpctrl_.obj
 0001:0002ed11       ___set_fpsr_sse2           1002fd11 f   LIBCMT:_fpctrl_.obj
 0001:0002ed83       ___mtold12                 1002fd83 f   LIBCMT:_mantold_.obj
 0001:0002ef67       ___initconout              1002ff67 f   LIBCMT:initcon.obj
 0001:0002ef86       ___termconout              1002ff86 f   LIBCMT:initcon.obj
 0001:0002ef9d       __fclose_nolock            1002ff9d f   LIBCMT:fclose.obj
 0001:0002f00a       _fclose                    1003000a f   LIBCMT:fclose.obj
 0001:0002f07e       __commit                   1003007e f   LIBCMT:commit.obj
 0001:0002f3c5       ___crtCompareStringA       100303c5 f   LIBCMT:a_cmp.obj
 0001:0002f407       __strnicoll_l              10030407 f   LIBCMT:strnicol.obj
 0001:0002f5a3       ___crtsetenv               100305a3 f   LIBCMT:setenv.obj
 0001:0002f7f0       ___ascii_strnicmp          100307f0 f   LIBCMT:_strnicm.obj
 0001:0002f851       __set_exp                  10030851 f   LIBCMT:_util_.obj
 0001:0002f87e       __decomp                   1003087e f   LIBCMT:_util_.obj
 0001:0002f941       __close_nolock             10030941 f   LIBCMT:close.obj
 0001:0002f9dd       __close                    100309dd f   LIBCMT:close.obj
 0001:0002faa1       __freebuf                  10030aa1 f   LIBCMT:_freebuf.obj
 0001:0002fad2       __strdup                   10030ad2 f   LIBCMT:strdup.obj
 0001:0002fb24       __mbschr_l                 10030b24 f   LIBCMT:mbschr.obj
 0001:0002fbd4       __mbschr                   10030bd4 f   LIBCMT:mbschr.obj
 0001:0002fbec       _RtlUnwind@16              10030bec f   kernel32:KERNEL32.dll
 0002:00000000       __imp__RegCloseKey@4       10032000     advapi32:ADVAPI32.dll
 0002:00000004       __imp__RegSetValueExA@24   10032004     advapi32:ADVAPI32.dll
 0002:00000008       __imp__RegQueryValueExA@24 10032008     advapi32:ADVAPI32.dll
 0002:0000000c       __imp__RegCreateKeyExA@36  1003200c     advapi32:ADVAPI32.dll
 0002:00000010       \177ADVAPI32_NULL_THUNK_DATA 10032010     advapi32:ADVAPI32.dll
 0002:00000014       __imp__SelectObject@8      10032014     gdi32:GDI32.dll
 0002:00000018       __imp__GetTextExtentPoint32A@16 10032018     gdi32:GDI32.dll
 0002:0000001c       __imp__CreateFontA@56      1003201c     gdi32:GDI32.dll
 0002:00000020       __imp__SetBkColor@8        10032020     gdi32:GDI32.dll
 0002:00000024       __imp__SetTextColor@8      10032024     gdi32:GDI32.dll
 0002:00000028       __imp__TextOutA@20         10032028     gdi32:GDI32.dll
 0002:0000002c       \177GDI32_NULL_THUNK_DATA  1003202c     gdi32:GDI32.dll
 0002:00000030       __imp__ImmGetCompositionStringA@16 10032030     imm32:IMM32.dll
 0002:00000034       __imp__ImmEscapeA@16       10032034     imm32:IMM32.dll
 0002:00000038       __imp__ImmIsIME@4          10032038     imm32:IMM32.dll
 0002:0000003c       __imp__ImmNotifyIME@16     1003203c     imm32:IMM32.dll
 0002:00000040       __imp__ImmGetCandidateListA@16 10032040     imm32:IMM32.dll
 0002:00000044       __imp__ImmAssociateContext@8 10032044     imm32:IMM32.dll
 0002:00000048       \177IMM32_NULL_THUNK_DATA  10032048     imm32:IMM32.dll
 0002:0000004c       __imp__lstrcatA@8          1003204c     kernel32:KERNEL32.dll
 0002:00000050       __imp__lstrcpyA@8          10032050     kernel32:KERNEL32.dll
 0002:00000054       __imp__GetSystemDirectoryA@8 10032054     kernel32:KERNEL32.dll
 0002:00000058       __imp__GetProcAddress@8    10032058     kernel32:KERNEL32.dll
 0002:0000005c       __imp__MapViewOfFile@20    1003205c     kernel32:KERNEL32.dll
 0002:00000060       __imp__GetLastError@0      10032060     kernel32:KERNEL32.dll
 0002:00000064       __imp__CreateFileMappingA@24 10032064     kernel32:KERNEL32.dll
 0002:00000068       __imp__CloseHandle@4       10032068     kernel32:KERNEL32.dll
 0002:0000006c       __imp__UnmapViewOfFile@4   1003206c     kernel32:KERNEL32.dll
 0002:00000070       __imp__WriteProcessMemory@20 10032070     kernel32:KERNEL32.dll
 0002:00000074       __imp__GetCurrentProcess@0 10032074     kernel32:KERNEL32.dll
 0002:00000078       __imp__CreateSemaphoreA@16 10032078     kernel32:KERNEL32.dll
 0002:0000007c       __imp__ReleaseSemaphore@12 1003207c     kernel32:KERNEL32.dll
 0002:00000080       __imp__WaitForSingleObject@8 10032080     kernel32:KERNEL32.dll
 0002:00000084       __imp__LoadLibraryA@4      10032084     kernel32:KERNEL32.dll
 0002:00000088       __imp__FindClose@4         10032088     kernel32:KERNEL32.dll
 0002:0000008c       __imp__FindFirstFileA@8    1003208c     kernel32:KERNEL32.dll
 0002:00000090       __imp__CreateDirectoryA@8  10032090     kernel32:KERNEL32.dll
 0002:00000094       __imp__GetModuleHandleA@4  10032094     kernel32:KERNEL32.dll
 0002:00000098       __imp__lstrcmpiA@8         10032098     kernel32:KERNEL32.dll
 0002:0000009c       __imp__WriteFile@20        1003209c     kernel32:KERNEL32.dll
 0002:000000a0       __imp__ReadFile@20         100320a0     kernel32:KERNEL32.dll
 0002:000000a4       __imp__GetFileSize@8       100320a4     kernel32:KERNEL32.dll
 0002:000000a8       __imp__CreateFileA@28      100320a8     kernel32:KERNEL32.dll
 0002:000000ac       __imp__GetModuleFileNameA@12 100320ac     kernel32:KERNEL32.dll
 0002:000000b0       __imp__GetTempFileNameA@16 100320b0     kernel32:KERNEL32.dll
 0002:000000b4       __imp__GetTempPathA@8      100320b4     kernel32:KERNEL32.dll
 0002:000000b8       __imp__GetPrivateProfileStringA@24 100320b8     kernel32:KERNEL32.dll
 0002:000000bc       __imp__GetPrivateProfileIntA@16 100320bc     kernel32:KERNEL32.dll
 0002:000000c0       __imp__IsDBCSLeadByte@4    100320c0     kernel32:KERNEL32.dll
 0002:000000c4       __imp__LockResource@4      100320c4     kernel32:KERNEL32.dll
 0002:000000c8       __imp__LoadResource@8      100320c8     kernel32:KERNEL32.dll
 0002:000000cc       __imp__FindResourceA@12    100320cc     kernel32:KERNEL32.dll
 0002:000000d0       __imp__IsBadWritePtr@8     100320d0     kernel32:KERNEL32.dll
 0002:000000d4       __imp__GetCurrentThreadId@0 100320d4     kernel32:KERNEL32.dll
 0002:000000d8       __imp__FreeLibrary@4       100320d8     kernel32:KERNEL32.dll
 0002:000000dc       __imp__SetStdHandle@8      100320dc     kernel32:KERNEL32.dll
 0002:000000e0       __imp__WriteConsoleW@20    100320e0     kernel32:KERNEL32.dll
 0002:000000e4       __imp__CreateFileW@28      100320e4     kernel32:KERNEL32.dll
 0002:000000e8       __imp__FlushFileBuffers@4  100320e8     kernel32:KERNEL32.dll
 0002:000000ec       __imp__CompareStringW@24   100320ec     kernel32:KERNEL32.dll
 0002:000000f0       __imp__VirtualProtect@16   100320f0     kernel32:KERNEL32.dll
 0002:000000f4       __imp__RtlUnwind@16        100320f4     kernel32:KERNEL32.dll
 0002:000000f8       __imp__GetTimeFormatA@24   100320f8     kernel32:KERNEL32.dll
 0002:000000fc       __imp__GetDateFormatA@24   100320fc     kernel32:KERNEL32.dll
 0002:00000100       __imp__GetSystemTimeAsFileTime@4 10032100     kernel32:KERNEL32.dll
 0002:00000104       __imp__RaiseException@16   10032104     kernel32:KERNEL32.dll
 0002:00000108       __imp__HeapFree@12         10032108     kernel32:KERNEL32.dll
 0002:0000010c       __imp__HeapAlloc@12        1003210c     kernel32:KERNEL32.dll
 0002:00000110       __imp__DecodePointer@4     10032110     kernel32:KERNEL32.dll
 0002:00000114       __imp__GetCommandLineA@0   10032114     kernel32:KERNEL32.dll
 0002:00000118       __imp__EncodePointer@4     10032118     kernel32:KERNEL32.dll
 0002:0000011c       __imp__TlsAlloc@0          1003211c     kernel32:KERNEL32.dll
 0002:00000120       __imp__TlsGetValue@4       10032120     kernel32:KERNEL32.dll
 0002:00000124       __imp__TlsSetValue@8       10032124     kernel32:KERNEL32.dll
 0002:00000128       __imp__TlsFree@4           10032128     kernel32:KERNEL32.dll
 0002:0000012c       __imp__InterlockedIncrement@4 1003212c     kernel32:KERNEL32.dll
 0002:00000130       __imp__GetModuleHandleW@4  10032130     kernel32:KERNEL32.dll
 0002:00000134       __imp__SetLastError@4      10032134     kernel32:KERNEL32.dll
 0002:00000138       __imp__InterlockedDecrement@4 10032138     kernel32:KERNEL32.dll
 0002:0000013c       __imp__TerminateProcess@8  1003213c     kernel32:KERNEL32.dll
 0002:00000140       __imp__UnhandledExceptionFilter@4 10032140     kernel32:KERNEL32.dll
 0002:00000144       __imp__SetUnhandledExceptionFilter@4 10032144     kernel32:KERNEL32.dll
 0002:00000148       __imp__IsDebuggerPresent@0 10032148     kernel32:KERNEL32.dll
 0002:0000014c       __imp__IsProcessorFeaturePresent@4 1003214c     kernel32:KERNEL32.dll
 0002:00000150       __imp__WideCharToMultiByte@32 10032150     kernel32:KERNEL32.dll
 0002:00000154       __imp__MultiByteToWideChar@24 10032154     kernel32:KERNEL32.dll
 0002:00000158       __imp__LoadLibraryW@4      10032158     kernel32:KERNEL32.dll
 0002:0000015c       __imp__GetCPInfo@8         1003215c     kernel32:KERNEL32.dll
 0002:00000160       __imp__GetACP@0            10032160     kernel32:KERNEL32.dll
 0002:00000164       __imp__GetOEMCP@0          10032164     kernel32:KERNEL32.dll
 0002:00000168       __imp__IsValidCodePage@4   10032168     kernel32:KERNEL32.dll
 0002:0000016c       __imp__Sleep@4             1003216c     kernel32:KERNEL32.dll
 0002:00000170       __imp__GetTimeZoneInformation@4 10032170     kernel32:KERNEL32.dll
 0002:00000174       __imp__LCMapStringW@24     10032174     kernel32:KERNEL32.dll
 0002:00000178       __imp__HeapCreate@12       10032178     kernel32:KERNEL32.dll
 0002:0000017c       __imp__HeapDestroy@4       1003217c     kernel32:KERNEL32.dll
 0002:00000180       __imp__ExitProcess@4       10032180     kernel32:KERNEL32.dll
 0002:00000184       __imp__GetStdHandle@4      10032184     kernel32:KERNEL32.dll
 0002:00000188       __imp__GetModuleFileNameW@12 10032188     kernel32:KERNEL32.dll
 0002:0000018c       __imp__SetHandleCount@4    1003218c     kernel32:KERNEL32.dll
 0002:00000190       __imp__InitializeCriticalSectionAndSpinCount@8 10032190     kernel32:KERNEL32.dll
 0002:00000194       __imp__GetFileType@4       10032194     kernel32:KERNEL32.dll
 0002:00000198       __imp__GetStartupInfoW@4   10032198     kernel32:KERNEL32.dll
 0002:0000019c       __imp__DeleteCriticalSection@4 1003219c     kernel32:KERNEL32.dll
 0002:000001a0       __imp__FreeEnvironmentStringsW@4 100321a0     kernel32:KERNEL32.dll
 0002:000001a4       __imp__GetEnvironmentStringsW@0 100321a4     kernel32:KERNEL32.dll
 0002:000001a8       __imp__QueryPerformanceCounter@4 100321a8     kernel32:KERNEL32.dll
 0002:000001ac       __imp__GetTickCount@0      100321ac     kernel32:KERNEL32.dll
 0002:000001b0       __imp__GetCurrentProcessId@0 100321b0     kernel32:KERNEL32.dll
 0002:000001b4       __imp__HeapSize@12         100321b4     kernel32:KERNEL32.dll
 0002:000001b8       __imp__LeaveCriticalSection@4 100321b8     kernel32:KERNEL32.dll
 0002:000001bc       __imp__EnterCriticalSection@4 100321bc     kernel32:KERNEL32.dll
 0002:000001c0       __imp__GetProcessHeap@0    100321c0     kernel32:KERNEL32.dll
 0002:000001c4       __imp__VirtualQuery@12     100321c4     kernel32:KERNEL32.dll
 0002:000001c8       __imp__SetFilePointer@16   100321c8     kernel32:KERNEL32.dll
 0002:000001cc       __imp__GetConsoleCP@0      100321cc     kernel32:KERNEL32.dll
 0002:000001d0       __imp__GetConsoleMode@8    100321d0     kernel32:KERNEL32.dll
 0002:000001d4       __imp__GetStringTypeW@16   100321d4     kernel32:KERNEL32.dll
 0002:000001d8       __imp__HeapReAlloc@16      100321d8     kernel32:KERNEL32.dll
 0002:000001dc       __imp__SetEnvironmentVariableA@8 100321dc     kernel32:KERNEL32.dll
 0002:000001e0       \177KERNEL32_NULL_THUNK_DATA 100321e0     kernel32:KERNEL32.dll
 0002:000001e4       __imp__SendMessageA@16     100321e4     user32:USER32.dll
 0002:000001e8       __imp__GetKeyboardLayout@4 100321e8     user32:USER32.dll
 0002:000001ec       __imp__FillRect@12         100321ec     user32:USER32.dll
 0002:000001f0       __imp__DrawTextExA@24      100321f0     user32:USER32.dll
 0002:000001f4       __imp__GetClassNameA@12    100321f4     user32:USER32.dll
 0002:000001f8       __imp__wsprintfA           100321f8     user32:USER32.dll
 0002:000001fc       __imp__GetForegroundWindow@0 100321fc     user32:USER32.dll
 0002:00000200       __imp__SetWindowLongA@12   10032200     user32:USER32.dll
 0002:00000204       __imp__GetKeyState@4       10032204     user32:USER32.dll
 0002:00000208       __imp__GetAsyncKeyState@4  10032208     user32:USER32.dll
 0002:0000020c       \177USER32_NULL_THUNK_DATA 1003220c     user32:USER32.dll
 0002:00000210       ___xc_a                    10032210     LIBCMT:crt0init.obj
 0002:00000214       ___xc_z                    10032214     LIBCMT:crt0init.obj
 0002:00000218       ___xi_a                    10032218     LIBCMT:crt0init.obj
 0002:00000230       ___xi_z                    10032230     LIBCMT:crt0init.obj
 0002:00000234       ___xp_a                    10032234     LIBCMT:crt0init.obj
 0002:00000240       ___xp_z                    10032240     LIBCMT:crt0init.obj
 0002:00000244       ___xt_a                    10032244     LIBCMT:crt0init.obj
 0002:00000248       ___xt_z                    10032248     LIBCMT:crt0init.obj
 0002:00000250       ??_C@_0CH@DHLMECDO@Installing?5AddtionRoutine_Circle@ 10032250     ddraw.obj
 0002:00000278       ??_C@_0BE@BLCLHAFH@Install?5Limit?5Crack?$AA@ 10032278     ddraw.obj
 0002:0000028c       ??_C@_0O@JCNOEAAB@Init?5TAConfig?$AA@ 1003228c     ddraw.obj
 0002:0000029c       ??_C@_0L@BPFNIF@Init?5TAHPI?$AA@ 1003229c     ddraw.obj
 0002:000002a8       ??_C@_0CE@PJHKJCND@Release?5AddtionRoutine_CircleSel@ 100322a8     ddraw.obj
 0002:000002cc       ??_C@_0BG@DOPNPAOO@Uninstall?5Limit?5Crack?$AA@ 100322cc     ddraw.obj
 0002:000002e4       ??_C@_0N@KFPNBLGG@lmap?5success?$AA@ 100322e4     ddraw.obj
 0002:000002f4       ??_C@_0BL@CLINEBCI@Error?5creating?5shared?5lmap?$AA@ 100322f4     ddraw.obj
 0002:00000310       ??_C@_0BB@PPKPJAKG@Process?5Attached?$AA@ 10032310     ddraw.obj
 0002:00000324       ??_C@_0P@DGMCGNOK@DLL?5EntryPoint?$AA@ 10032324     ddraw.obj
 0002:00000334       ??_C@_0L@KIPMHOEJ@?2ddraw?4dll?$AA@ 10032334     ddraw.obj
 0002:00000340       ??_C@_0CA@CDMLDJDG@returning?5from?5DirectDrawCreate?$AA@ 10032340     ddraw.obj
 0002:00000360       ??_C@_0BB@BNCGIPPP@DirectDrawCreate?$AA@ 10032360     ddraw.obj
 0002:00000374       ??_C@_0O@EGKIENB@TADemo?9MKChat?$AA@ 10032374     ddraw.obj
 0002:00000384       ??_C@_0P@ECBBNGJJ@TAOverlayShare?$AA@ 10032384     ddraw.obj
 0002:00000394       ??_C@_09FPJIAIIJ@GlobalMap?$AA@ 10032394     ddraw.obj
 0002:000003a0       ??_C@_0BD@CMPNPKLF@New?5ExternQuickKey?$AA@ 100323a0     ExternQuickKey.obj
 0002:000003b8       __real@0000000000000000    100323b8     ExternQuickKey.obj
 0002:000003c0       ??_C@_09EJFGJKCI@Commander?$AA@ 100323c0     ExternQuickKey.obj
 0002:000003cc       ??_C@_02DPKJAMEF@?$CFd?$AA@ 100323cc     HardCodeFunctions.obj
 0002:000003d0       ??_C@_04CHADEDPO@view?$AA@ 100323d0     HardCodeFunctions.obj
 0002:000003dc       ??_7ModifyHook@@6B@        100323dc     ModifyHook.obj
 0002:000003fc       ??_C@_0P@PFJFANLH@IDDraw?5Created?$AA@ 100323fc     iddraw.obj
 0002:00000414       ??_7IDDraw@@6B@            10032414     iddraw.obj
 0002:00000470       ??_C@_0P@KJMDNKBE@QueryInterface?$AA@ 10032470     iddraw.obj
 0002:00000480       ??_C@_06GDIHMAEO@AddRef?$AA@ 10032480     iddraw.obj
 0002:00000488       ??_C@_0P@EKCLAKDL@DDRAW?3?3Release?$AA@ 10032488     iddraw.obj
 0002:00000498       ??_C@_07IPNBHMDC@Compact?$AA@ 10032498     iddraw.obj
 0002:000004a0       ??_C@_0O@EMOMBNF@CreateClipper?$AA@ 100324a0     iddraw.obj
 0002:000004b0       ??_C@_0O@PIOFMFBK@CreatePalette?$AA@ 100324b0     iddraw.obj
 0002:000004c0       ??_C@_0O@OFCJHBEH@CreateSurface?$AA@ 100324c0     iddraw.obj
 0002:000004d0       ??_C@_0BB@FHFDHPBC@DuplicateSurface?$AA@ 100324d0     iddraw.obj
 0002:000004e4       ??_C@_0BB@FIIJIGGE@EnumDisplayModes?$AA@ 100324e4     iddraw.obj
 0002:000004f8       ??_C@_0N@PHNMLPEO@EnumSurfaces?$AA@ 100324f8     iddraw.obj
 0002:00000508       ??_C@_0BB@OBCEIMDP@FlipToGDISurface?$AA@ 10032508     iddraw.obj
 0002:0000051c       ??_C@_07DMJCDHGN@GetCaps?$AA@ 1003251c     iddraw.obj
 0002:00000524       ??_C@_0P@OMBOIPEK@GetDisplayMode?$AA@ 10032524     iddraw.obj
 0002:00000534       ??_C@_0P@GHLHNLFG@GetFourCCCodes?$AA@ 10032534     iddraw.obj
 0002:00000544       ??_C@_0O@MAFDEJFG@GetGDISurface?$AA@ 10032544     iddraw.obj
 0002:00000554       ??_C@_0BE@LKENIDIP@GetMonitorFrequency?$AA@ 10032554     iddraw.obj
 0002:00000568       ??_C@_0M@JFJKPPOO@GetScanLine?$AA@ 10032568     iddraw.obj
 0002:00000574       ??_C@_0BH@BFIDKFPB@GetVerticalBlankStatus?$AA@ 10032574     iddraw.obj
 0002:0000058c       ??_C@_0L@KIAPHAEH@Initialize?$AA@ 1003258c     iddraw.obj
 0002:00000598       ??_C@_0BD@NJNBEMCF@RestoreDisplayMode?$AA@ 10032598     iddraw.obj
 0002:000005ac       ??_C@_0BE@EOLJKBCJ@SetCooperativeLevel?$AA@ 100325ac     iddraw.obj
 0002:000005c0       ??_C@_0P@CCAAHFGG@SetDisplayMode?$AA@ 100325c0     iddraw.obj
 0002:000005d0       ??_C@_0BF@LNCKAJKB@WaitForVerticalBlank?$AA@ 100325d0     iddraw.obj
 0002:000005e8       ??_C@_0BI@IICMGLKJ@DisableDeInterlaceMovie?$AA@ 100325e8     iddrawsurface.obj
 0002:00000600       ??_C@_0BK@OOKMCHOI@Software?2Yankspankers?2Eye?$AA@ 10032600     iddrawsurface.obj
 0002:0000061c       ??_C@_03BGCLFLHG@Moo?$AA@  1003261c     iddrawsurface.obj
 0002:00000620       ??_C@_0BG@NLMGOFPL@IDDrawSurface?5Created?$AA@ 10032620     iddrawsurface.obj
 0002:0000063c       ??_7IDDrawSurface@@6B@     1003263c     iddrawsurface.obj
 0002:000006cc       ??_C@_0BG@JEFINOEC@DDrawSurface?3?3Release?$AA@ 100326cc     iddrawsurface.obj
 0002:000006e4       ??_C@_0BE@PDGPKEKK@AddOverlayDirtyRect?$AA@ 100326e4     iddrawsurface.obj
 0002:000006f8       ??_C@_0BD@BIHJFLDM@AddAttachedSurface?$AA@ 100326f8     iddrawsurface.obj
 0002:0000070c       ??_C@_03OFDIDOOD@Blt?$AA@  1003270c     iddrawsurface.obj
 0002:00000710       ??_C@_08JDNLNHJL@BltBatch?$AA@ 10032710     iddrawsurface.obj
 0002:0000071c       ??_C@_07GEANNLDE@BltFast?$AA@ 1003271c     iddrawsurface.obj
 0002:00000724       ??_C@_0BG@IIGGFNCD@DeleteAttachedSurface?$AA@ 10032724     iddrawsurface.obj
 0002:0000073c       ??_C@_0BF@EGLGDIKO@EnumAttachedSurfaces?$AA@ 1003273c     iddrawsurface.obj
 0002:00000754       ??_C@_0BD@GEHIEOBD@EnumOverlayZOrders?$AA@ 10032754     iddrawsurface.obj
 0002:00000768       ??_C@_04PHKHGEOJ@Flip?$AA@ 10032768     iddrawsurface.obj
 0002:00000770       ??_C@_0BD@HNKGHPLD@GetAttachedSurface?$AA@ 10032770     iddrawsurface.obj
 0002:00000784       ??_C@_0N@FCNEHLOF@GetBltStatus?$AA@ 10032784     iddrawsurface.obj
 0002:00000794       ??_C@_0L@PEINPAHD@GetClipper?$AA@ 10032794     iddrawsurface.obj
 0002:000007a0       ??_C@_0M@DKHGMJFL@GetColorKey?$AA@ 100327a0     iddrawsurface.obj
 0002:000007ac       ??_C@_05EFCIJCKE@GetDC?$AA@ 100327ac     iddrawsurface.obj
 0002:000007b4       ??_C@_0O@DLPMMLH@GetFlipStatus?$AA@ 100327b4     iddrawsurface.obj
 0002:000007c4       ??_C@_0BD@KNJNDDDJ@GetOverlayPosition?$AA@ 100327c4     iddrawsurface.obj
 0002:000007d8       ??_C@_0L@IKGPELM@GetPalette?$AA@ 100327d8     iddrawsurface.obj
 0002:000007e4       ??_C@_0P@POEIEFLD@GetPixelFormat?$AA@ 100327e4     iddrawsurface.obj
 0002:000007f4       ??_C@_0P@FFHKNLIO@GetSurfaceDesc?$AA@ 100327f4     iddrawsurface.obj
 0002:00000804       ??_C@_06NNBEFHKC@IsLost?$AA@ 10032804     iddrawsurface.obj
 0002:0000080c       ??_C@_09DEEPKLKK@ReleaseDC?$AA@ 1003280c     iddrawsurface.obj
 0002:00000818       ??_C@_0L@OKKCEHDK@SetClipper?$AA@ 10032818     iddrawsurface.obj
 0002:00000824       ??_C@_0M@DFGIBPNI@SetColorKey?$AA@ 10032824     iddrawsurface.obj
 0002:00000830       ??_C@_0BD@FHLHAFNB@SetOverlayPosition?$AA@ 10032830     iddrawsurface.obj
 0002:00000844       ??_C@_0L@BGIJEDPF@SetPalette?$AA@ 10032844     iddrawsurface.obj
 0002:00000850       ??_C@_0O@GHGJDMP@UpdateOverlay?$AA@ 10032850     iddrawsurface.obj
 0002:00000860       ??_C@_0BF@PDNLLAKO@UpdateOverlayDisplay?$AA@ 10032860     iddrawsurface.obj
 0002:00000878       ??_C@_0BE@CBCJLNFH@UpdateOverlayZOrder?$AA@ 10032878     iddrawsurface.obj
 0002:0000088c       ??_C@_0BJ@NJNPELPO@error?5writing?5screenshot?$AA@ 1003288c     iddrawsurface.obj
 0002:000008a8       ??_C@_01CLKCMJKC@?5?$AA@   100328a8     iddrawsurface.obj
 0002:000008ac       ??_C@_02KEGNLNML@?0?5?$AA@ 100328ac     iddrawsurface.obj
 0002:000008b0       ??_C@_03NLJIHOMM@?5?9?5?$AA@ 100328b0     iddrawsurface.obj
 0002:000008b4       ??_C@_04IBGELPJM@?4pcx?$AA@ 100328b4     iddrawsurface.obj
 0002:000008bc       ??_C@_04LNNPJPIG@SHOT?$AA@ 100328bc     iddrawsurface.obj
 0002:000008c4       ??_C@_05NFNNDPPI@?$CFx?5?9?5?$AA@ 100328c4     iddrawsurface.obj
 0002:000008cc       ??_C@_04OHEMONDJ@?$CF?44i?$AA@ 100328cc     iddrawsurface.obj
 0002:000008d4       ??_C@_0O@LPPMHENJ@?2screenshots?2?$AA@ 100328d4     iddrawsurface.obj
 0002:000008e4       ??_C@_01KICIPPFI@?2?$AA@   100328e4     iddrawsurface.obj
 0002:000008e8       ??_C@_09MEHKOFDP@?2?1?3?$CK?$DP?$CC?$DM?$DO?$HM?$AA@ 100328e8     iddrawsurface.obj
 0002:000008f4       ??_C@_0L@HOAHIOPJ@Dplayx?4dll?$AA@ 100328f4     MultiGameWeaponID.obj
 0002:00000900       ??_C@_09OOAIACAK@?$CF1i?5?3?5?$CF1i?$AA@ 10032900     dddta.obj
 0002:0000090c       ??_C@_0N@KDCKDLBK@WreckageInfo?$AA@ 1003290c     dddta.obj
 0002:0000091c       ??_C@_08CLANBDND@Features?$AA@ 1003291c     dddta.obj
 0002:00000928       ??_C@_0L@DOOMPJPN@FeatureDef?$AA@ 10032928     dddta.obj
 0002:00000934       ??_C@_04GFNOIPHJ@TA3D?$AA@ 10032934     dddta.obj
 0002:0000093c       ??_C@_05NIIFDGAD@glow2?$AA@ 1003293c     dddta.obj
 0002:00000944       ??_C@_09IGHPOEDC@speeddown?$AA@ 10032944     dddta.obj
 0002:00000950       ??_C@_07JEMALDAD@speedup?$AA@ 10032950     dddta.obj
 0002:00000958       ??_C@_05PDJBBECF@pause?$AA@ 10032958     dddta.obj
 0002:00000960       ??_C@_0BD@HBNJHGN@?$CK?$CI?$CIint?$CK?$CJTAPTR?$CJ?3?5?$CFi?$AA@ 10032960     dddta.obj
 0002:00000974       ??_C@_09GHIDGKJN@TAPTR?3?5?$CFi?$AA@ 10032974     dddta.obj
 0002:00000980       ??_C@_0BC@KBDMBKEH@deque?$DMT?$DO?5too?5long?$AA@ 10032980     dddta.obj
 0002:00000998       ??_7bad_alloc@std@@6B@     10032998     dddta.obj
 0002:000009a0       ??_C@_0BB@INHCPINK@New?5CChangeQueue?$AA@ 100329a0     changequeue.obj
 0002:000009b4       ??_C@_0M@ELLCMNJB@New?5CIncome?$AA@ 100329b4     cinomce.obj
 0002:000009c0       ??_C@_0BA@DJEJLNNN@Back?5To?5My?5View?$AA@ 100329c0     cinomce.obj
 0002:000009d0       ??_C@_05HNFGPKGB@?$CL?$CF?40f?$AA@ 100329d0     cinomce.obj
 0002:000009d8       ??_C@_05HMJEJAFG@?$CL?$CF?41f?$AA@ 100329d8     cinomce.obj
 0002:000009e0       ??_C@_05MIFBICEB@?$CF?40fK?$AA@ 100329e0     cinomce.obj
 0002:000009e8       ??_C@_05HAONOFCE@?$CF?41fK?$AA@ 100329e8     cinomce.obj
 0002:000009f0       __real@408f400000000000    100329f0     cinomce.obj
 0002:000009f8       __real@40f86a0000000000    100329f8     cinomce.obj
 0002:00000a00       ??_C@_04GHNNFJCK@?$CF?40f?$AA@ 10032a00     cinomce.obj
 0002:00000a08       __real@40c3880000000000    10032a08     cinomce.obj
 0002:00000a10       __real@4059000000000000    10032a10     cinomce.obj
 0002:00000a18       ??_C@_0L@EOLGPJIK@IncomePosY?$AA@ 10032a18     cinomce.obj
 0002:00000a24       ??_C@_0L@FHKNMIML@IncomePosX?$AA@ 10032a24     cinomce.obj
 0002:00000a30       ??_C@_09BLPFPLND@New?5CWarp?$AA@ 10032a30     commanderwarp.obj
 0002:00000a3c       ??_C@_0BL@NMKDEFCF@Waing?5for?5others?5to?5finish?$AA@ 10032a3c     commanderwarp.obj
 0002:00000a58       ??_C@_0CE@FBPPPKFH@Place?5your?5commander?5and?5click?5d@ 10032a58     commanderwarp.obj
 0002:00000a7c       ??_C@_04KNCIGIPG@Done?$AA@ 10032a7c     commanderwarp.obj
 0002:00000a84       ??_C@_0L@GJBGBHEH@New?5Dialog?$AA@ 10032a84     dialog.obj
 0002:00000a90       ??_C@_0L@BNNADALD@DialogPosY?$AA@ 10032a90     dialog.obj
 0002:00000a9c       ??_C@_0L@EMLABPC@DialogPosX?$AA@ 10032a9c     dialog.obj
 0002:00000aa8       ??_C@_0O@HEIPGDOB@WhiteboardKey?$AA@ 10032aa8     dialog.obj
 0002:00000ab8       ??_C@_05ENDOMFAI@Delay?$AA@ 10032ab8     dialog.obj
 0002:00000ac0       ??_C@_09EGLIJNJA@ShareText?$AA@ 10032ac0     dialog.obj
 0002:00000acc       ??_C@_09LJKADOPB@FullRings?$AA@ 10032acc     dialog.obj
 0002:00000ad8       ??_C@_0L@JGCODOEP@OptimizeDT?$AA@ 10032ad8     dialog.obj
 0002:00000ae4       ??_C@_07DAMLPILE@KeyCode?$AA@ 10032ae4     dialog.obj
 0002:00000aec       ??_C@_05PBPHDBPF@VSync?$AA@ 10032aec     dialog.obj
 0002:00000af4       ??_C@_0L@PALJPHJ@BackGround?$AA@ 10032af4     dialog.obj
 0002:00000b00       ??_C@_02PKFBJPLJ@10?$AA@   10032b00     dialog.obj
 0002:00000b04       ??_C@_0DN@DBKJANFC@?$CLsetshareenergy?51000?$KN?$CLsetshareme@ 10032b04     dialog.obj
 0002:00000b44       ??_C@_05OICCNCCO@Solid?$AA@ 10032b44     dialog.obj
 0002:00000b4c       ??_C@_04OJAHODMC@Text?$AA@ 10032b4c     dialog.obj
 0002:00000b54       ??_C@_04OHJIHAFH@None?$AA@ 10032b54     dialog.obj
 0002:00000b5c       ??_C@_0L@MALGKGOF@Background?$AA@ 10032b5c     dialog.obj
 0002:00000b68       ??_C@_02IKAHHCAI@?$CFi?$AA@ 10032b68     dialog.obj
 0002:00000b6c       ??_C@_0O@BLDCGDKD@Autoclick?5Key?$AA@ 10032b6c     dialog.obj
 0002:00000b7c       ??_C@_0BB@MBLHEOCN@Chat?5Macro?5?$CIF11?$CJ?$AA@ 10032b7c     dialog.obj
 0002:00000b90       ??_C@_0BA@NLMDGMFO@Optmize?5DT?5rows?$AA@ 10032b90     dialog.obj
 0002:00000ba0       ??_C@_08JGILNPHN@Disabled?$AA@ 10032ba0     dialog.obj
 0002:00000bac       ??_C@_07DOAOMMKG@Enabled?$AA@ 10032bac     dialog.obj
 0002:00000bb4       ??_C@_0BB@BHLMHHIL@Enable?5FullRings?$AA@ 10032bb4     dialog.obj
 0002:00000bc8       ??_C@_0P@JCLHFLHH@Whiteboard?5Key?$AA@ 10032bc8     dialog.obj
 0002:00000bd8       ??_C@_0P@MBKJIILC@New?5CIdleUnits?$AA@ 10032bd8     idlevillager.obj
 0002:00000be8       ??_C@_0L@BCCOOBGF@Select?5One?$AA@ 10032be8     idlevillager.obj
 0002:00000bf4       ??_C@_0BC@CINCGBDO@Search?5Idle?5Const?$AA@ 10032bf4     idlevillager.obj
 0002:00000c08       ??_C@_0N@KDNIILKB@New?5CMapRect?$AA@ 10032c08     maprect.obj
 0002:00000c18       __real@4080c00000000000    10032c18     maprect.obj
 0002:00000c20       __real@4085000000000000    10032c20     maprect.obj
 0002:00000c28       __real@405f800000000000    10032c28     maprect.obj
 0002:00000c30       ??_C@_0BE@CDDJIDDK@New?5CMinimapHandler?$AA@ 10032c30     MinimapHandler.obj
 0002:00000c48       ??_7CMinimapHandler@@6B@   10032c48     MinimapHandler.obj
 0002:00000c4c       ??_C@_0BB@BPCHOMOB@config?2ddraw?4ini?$AA@ 10032c4c     TAConfig.obj
 0002:00000c60       ??_C@_05MKIEMBDL@taini?$AA@ 10032c60     TAConfig.obj
 0002:00000c68       ??_C@_0M@PIPCPMLP@Preferences?$AA@ 10032c68     TAConfig.obj
 0002:00000c74       ??_C@_04LOAJBDKD@true?$AA@ 10032c74     TAConfig.obj
 0002:00000c7c       ??_C@_05LAPONLG@false?$AA@ 10032c7c     TAConfig.obj
 0002:00000c84       ??_C@_01BJJEKLCA@?$CC?$AA@ 10032c84     TAConfig.obj
 0002:00000c88       ??_C@_06LLGOEAAA@dword?3?$AA@ 10032c88     TAConfig.obj
 0002:00000c90       ??_C@_03HGNGHBCD@REG?$AA@  10032c90     TAConfig.obj
 0002:00000c94       ??_C@_0BD@OLBABOEK@vector?$DMT?$DO?5too?5long?$AA@ 10032c94     TAConfig.obj
 0002:00000ca8       ??_C@_0M@JAFHGAIJ@New?5CTAHook?$AA@ 10032ca8     tahook.obj
 0002:00000cb4       ??_C@_0BJ@PMMFLPJO@Total?5Annihilation?5Class?$AA@ 10032cb4     tahook.obj
 0002:00000cd0       ??_C@_03GDMIGCCC@Ver?$AA@  10032cd0     tahook.obj
 0002:00000cd4       ??_C@_0BE@DNBNIOMM@Swedish?5Eye?5ver?50?48?$AA@ 10032cd4     tahook.obj
 0002:00000ce8       ??_C@_0BN@BEECPMHL@Software?2Yankspankers?2TAHook?$AA@ 10032ce8     tahook.obj
 0002:00000d08       ??_C@_02KNHHEEKP@?5?5?$AA@ 10032d08     UnicodeSupport.obj
 0002:00000d0c       ??_C@_0BG@JLMLGJCG@NewSpecScreenSurface?$CB?$AA@ 10032d0c     UnicodeSupport.obj
 0002:00000d24       ??_C@_05PJHGNGH@?$CFd?4?$CFs?$AA@ 10032d24     UnicodeSupport.obj
 0002:00000d2c       ??_C@_0BC@LHLJJAO@WM_IME_SETCONTEXT?$AA@ 10032d2c     UnicodeSupport.obj
 0002:00000d40       ??_C@_0O@NGOEABOO@WM_IME_SELECT?$AA@ 10032d40     UnicodeSupport.obj
 0002:00000d50       ??_C@_0N@KLCPFGPE@WM_IME_KEYUP?$AA@ 10032d50     UnicodeSupport.obj
 0002:00000d60       ??_C@_0P@KACLNIBC@WM_IME_KEYDOWN?$AA@ 10032d60     UnicodeSupport.obj
 0002:00000d70       ??_C@_0P@CLPNCGEA@WM_IME_CONTROL?$AA@ 10032d70     UnicodeSupport.obj
 0002:00000d80       ??_C@_0BG@HAEEDOMB@WM_IME_ENDCOMPOSITION?$AA@ 10032d80     UnicodeSupport.obj
 0002:00000d98       ??_C@_0BD@MECHMCEO@WM_INPUTLANGCHANGE?$AA@ 10032d98     UnicodeSupport.obj
 0002:00000dac       ??_C@_0O@NIFFAANL@WM_IME_NOTIFY?$AA@ 10032dac     UnicodeSupport.obj
 0002:00000dbc       ??_C@_0M@KGOALMI@WM_IME_CHAR?$AA@ 10032dbc     UnicodeSupport.obj
 0002:00000dc8       ??_C@_0BD@DFBPHLOJ@WM_IME_COMPOSITION?$AA@ 10032dc8     UnicodeSupport.obj
 0002:00000ddc       ??_C@_0BI@FPNBFFHB@WM_IME_STARTCOMPOSITION?$AA@ 10032ddc     UnicodeSupport.obj
 0002:00000df4       ??_C@_0BF@LDDGBCJG@UnicodeSupport_Color?$AA@ 10032df4     LimitCrack.obj
 0002:00000e0c       ??_C@_0BK@LILLOALN@UnicodeSupport_Background?$AA@ 10032e0c     LimitCrack.obj
 0002:00000e28       ??_C@_0P@OBGABBGH@UnicodeSupport?$AA@ 10032e28     LimitCrack.obj
 0002:00000e38       ??_C@_0BA@FFJHOMCK@MultiGameWeapon?$AA@ 10032e38     LimitCrack.obj
 0002:00000e48       ??_C@_08LCILBNDK@SfxLimit?$AA@ 10032e48     LimitCrack.obj
 0002:00000e54       ??_C@_0P@BOBGLIL@X_CompositeBuf?$AA@ 10032e54     LimitCrack.obj
 0002:00000e64       ??_C@_0P@LIBKLAGD@Y_CompositeBuf?$AA@ 10032e64     LimitCrack.obj
 0002:00000e74       ??_C@_08PNBAGKKP@UnitType?$AA@ 10032e74     LimitCrack.obj
 0002:00000e80       ??_C@_0L@MNKEGOHO@WeaponType?$AA@ 10032e80     LimitCrack.obj
 0002:00000e8c       ??_C@_0BD@LMIKOEDJ@AISearchMapEntries?$AA@ 10032e8c     LimitCrack.obj
 0002:00000ea0       ??_C@_0CA@MLLBBJPJ@IncreaseAISearchMapEntriesLimit?$AA@ 10032ea0     LimitCrack.obj
 0002:00000ec0       ??_C@_0BI@GPKIJHBG@IncreaseWeaponTypeLimit?$AA@ 10032ec0     LimitCrack.obj
 0002:00000ed8       ??_C@_0CA@IDNFPBCD@Release?5IncreaseWeaponTypeLimit?$AA@ 10032ed8     LimitCrack.obj
 0002:00000ef8       ??_C@_0BO@PGHLCIEK@Release?5IncreaseUnitTypeLimit?$AA@ 10032ef8     LimitCrack.obj
 0002:00000f18       ??_C@_0O@PENBLCDB@WriteNewLimit?$AA@ 10032f18     LimitCrack.obj
 0002:00000f28       ??_C@_0BN@IKDEIDMJ@Release?5IncreaseCompositeBuf?$AA@ 10032f28     LimitCrack.obj
 0002:00000f48       ??_C@_0BF@NENHJDAB@IncreaseCompositeBuf?$AA@ 10032f48     LimitCrack.obj
 0002:00000f60       ??_C@_0BJ@OJCGPBNH@Release?5IncreaseSfxLimit?$AA@ 10032f60     LimitCrack.obj
 0002:00000f7c       ??_C@_0BB@BADJIILC@IncreaseSfxLimit?$AA@ 10032f7c     LimitCrack.obj
 0002:00000f98       ??_C@_0BF@MKOHBEGH@New?5AlliesWhiteboard?$AA@ 10032f98     whiteboard.obj
 0002:00000fb4       ??_7GraphicMoveText@@6B@   10032fb4     whiteboard.obj
 0002:00000fc0       ??_7GraphicElement@@6B@    10032fc0     whiteboard.obj
 0002:00000fc8       ??_C@_00CNPNBAHC@?$AA@     10032fc8     whiteboard.obj
 0002:00000fcc       ??_C@_0O@CINCPOAL@Get?5Mark?5Text?$AA@ 10032fcc     whiteboard.obj
 0002:00000fdc       ??_C@_0BP@JAAAJKE@WM_LBUTTONDBLCLK?5and?5Key?5Down?$DP?$AA@ 10032fdc     whiteboard.obj
 0002:00001000       ??_7GraphicText@@6B@       10033000     whiteboard.obj
 0002:00001008       ??_C@_0P@JBAHIIHC@Add?5Textmarker?$AA@ 10033008     whiteboard.obj
 0002:00001018       ??_C@_0BA@EGPHLNLI@Edit?5Textmarker?$AA@ 10033018     whiteboard.obj
 0002:0000102c       ??_7GraphicTextEdited@@6B@ 1003302c     whiteboard.obj
 0002:00001038       ??_7DeleteGraphic@@6B@     10033038     whiteboard.obj
 0002:00001044       ??_7GraphicLine@@6B@       10033044     whiteboard.obj
 0002:0000104c       ??_C@_0BD@HINNEAML@New?5marker?5added?3?5?$AA@ 1003304c     whiteboard.obj
 0002:00001060       __real@4066800000000000    10033060     whiteboard.obj
 0002:00001068       __real@3fe0000000000000    10033068     whiteboard.obj
 0002:00001070       ??_C@_0O@MHPFOHOD@scrshot?$CFi?4pcx?$AA@ 10033070     PCX.obj
 0002:00001080       ??_C@_0M@JIHKHPEH@PCXBuf?5NULL?$AA@ 10033080     pcxread.obj
 0002:0000108c       ??_C@_0P@JCEMHALA@LResource?5NULL?$AA@ 1003308c     pcxread.obj
 0002:0000109c       ??_C@_0P@PFEDANKG@FResource?5NULL?$AA@ 1003309c     pcxread.obj
 0002:000010b0       ??_7SingleHook@@6B@        100330b0     Hook.obj
 0002:000010d8       ??_7InlineSingleHook@@6B@  100330d8     InlineHook.obj
 0002:00001104       ??_7CElementHandler@@6B@   10033104     ElementHandler.obj
 0002:00001108       ??_C@_0BB@MOGOBHAF@list?$DMT?$DO?5too?5long?$AA@ 10033108     ElementHandler.obj
 0002:00001120       ??_7logic_error@std@@6B@   10033120     xthrow.obj
 0002:0000112c       ??_7length_error@std@@6B@  1003312c     xthrow.obj
 0002:00001134       ??_C@_0P@GHFPNOJB@bad?5allocation?$AA@ 10033134     LIBCMT:new.obj
 0002:00001144       __FPinit                   10033144     LIBCMT:_fpinit_.obj
 0002:0000114c       ??_7type_info@@6B@         1003314c     LIBCMT:typinfo.obj
 0002:00001150       ??_C@_03EBAPMIKO@a?1p?$AA@ 10033150     LIBCMT:strftime.obj
 0002:00001154       ??_C@_05JAMEPDIN@am?1pm?$AA@ 10033154     LIBCMT:strftime.obj
 0002:00001180       ??_7exception@std@@6B@     10033180     LIBCMT:stdexcpt.obj
 0002:00001188       ??_C@_0BC@EOODALEL@Unknown?5exception?$AA@ 10033188     LIBCMT:stdexcpt.obj
 0002:0000119c       __pRawDllMain              1003319c     LIBCMT:dllcrt0.obj
 0002:0000119c       __pDefaultRawDllMain       1003319c     LIBCMT:dllcrt0.obj
 0002:000011a0       __pDestructExceptionObject 100331a0     LIBCMT:frame.obj
 0002:000011a8       ??_7bad_exception@std@@6B@ 100331a8     LIBCMT:frame.obj
 0002:000011b0       ??_C@_0O@DPKOEFFH@bad?5exception?$AA@ 100331b0     LIBCMT:frame.obj
 0002:000011c0       ??_C@_1BK@DBDEIDLH@?$AAK?$AAE?$AAR?$AAN?$AAE?$AAL?$AA3?$AA2?$AA?4?$AAD?$AAL?$AAL?$AA?$AA@ 100331c0     LIBCMT:tidtable.obj
 0002:000011dc       ??_C@_07PEJMOBNF@FlsFree?$AA@ 100331dc     LIBCMT:tidtable.obj
 0002:000011e4       ??_C@_0M@JCPCPOEF@FlsSetValue?$AA@ 100331e4     LIBCMT:tidtable.obj
 0002:000011f0       ??_C@_0M@GDNOONDI@FlsGetValue?$AA@ 100331f0     LIBCMT:tidtable.obj
 0002:000011fc       ??_C@_08KNHFBNJ@FlsAlloc?$AA@ 100331fc     LIBCMT:tidtable.obj
 0002:00001210       ??_C@_0BP@OGBCLIBO@Stack?5around?5_alloca?5corrupted?$AA@ 10033210     LIBCMT:_userapi_.obj
 0002:00001230       ??_C@_0CK@CNLNOEPB@Local?5variable?5used?5before?5initi@ 10033230     LIBCMT:_userapi_.obj
 0002:0000125c       ??_C@_0BI@CIGMDCBH@Stack?5memory?5corruption?$AA@ 1003325c     LIBCMT:_userapi_.obj
 0002:00001274       ??_C@_0CK@FEGOIOPB@Cast?5to?5smaller?5type?5causing?5los@ 10033274     LIBCMT:_userapi_.obj
 0002:000012a0       ??_C@_0BJ@HEGAHDFO@Stack?5pointer?5corruption?$AA@ 100332a0     LIBCMT:_userapi_.obj
 0002:000012d0       ??_C@_0BO@GNIAFIKK@Unknown?5Runtime?5Check?5Error?6?$AN?$AA@ 100332d0     LIBCMT:_error_.obj
 0002:000012f0       ??_C@_0CM@NGINOKPC@Stack?5memory?5around?5_alloca?5was?5@ 100332f0     LIBCMT:_error_.obj
 0002:0000131c       ??_C@_0DG@HKJMLLLP@A?5local?5variable?5was?5used?5before@ 1003331c     LIBCMT:_error_.obj
 0002:00001354       ??_C@_0BN@FFOINMNJ@Stack?5memory?5was?5corrupted?6?$AN?$AA@ 10033354     LIBCMT:_error_.obj
 0002:00001378       ??_C@_0BBN@GPMLNJCF@A?5cast?5to?5a?5smaller?5data?5type?5ha@ 10033378     LIBCMT:_error_.obj
 0002:00001498       ??_C@_0NN@NGPKDKPD@The?5value?5of?5ESP?5was?5not?5properl@ 10033498     LIBCMT:_error_.obj
 0002:00001614       ??_C@_0CA@IODNCDPG@Run?9Time?5Check?5Failure?5?$CD?$CFd?5?9?5?$CFs?$AA@ 10033614     LIBCMT:_error_.obj
 0002:00001634       ??_C@_0BE@GNBOBNCK@Unknown?5Module?5Name?$AA@ 10033634     LIBCMT:_error_.obj
 0002:00001648       ??_C@_0BB@PFFGGCJP@Unknown?5Filename?$AA@ 10033648     LIBCMT:_error_.obj
 0002:00001660       ??_C@_1EA@NFKNIFJP@?$AAR?$AAu?$AAn?$AA?9?$AAT?$AAi?$AAm?$AAe?$AA?5?$AAC?$AAh?$AAe?$AAc?$AAk?$AA?5?$AAF?$AAa?$AAi?$AAl?$AAu?$AAr?$AAe?$AA?5?$AA?$CD?$AA?$CF?$AAd?$AA?5?$AA?9?$AA?5?$AA?$CF?$AAs?$AA?$AA@ 10033660     LIBCMT:_error_.obj
 0002:000016a0       ??_C@_1GM@OLMCBDMB@?$AAR?$AAu?$AAn?$AAt?$AAi?$AAm?$AAe?$AA?5?$AAC?$AAh?$AAe?$AAc?$AAk?$AA?5?$AAE?$AAr?$AAr?$AAo?$AAr?$AA?4?$AA?6?$AA?$AN?$AA?5?$AAU?$AAn?$AAa?$AAb?$AAl?$AAe?$AA?5?$AAt?$AAo@ 100336a0     LIBCMT:_error_.obj
 0002:0000170c       ??_C@_05KLBDPFGC@e?$CL000?$AA@ 1003370c     LIBCMT:cvt.obj
 0002:00001714       ??_C@_1O@CEDCILHN@?$AA?$CI?$AAn?$AAu?$AAl?$AAl?$AA?$CJ?$AA?$AA@ 10033714     LIBCMT:output.obj
 0002:00001724       ??_C@_06OJHGLDPL@?$CInull?$CJ?$AA@ 10033724     LIBCMT:output.obj
 0002:00001730       ___lookuptable             10033730     LIBCMT:output.obj
 0002:0000178c       ??_C@_1BC@GDGBMEMK@?$AAH?$AAH?$AA?3?$AAm?$AAm?$AA?3?$AAs?$AAs?$AA?$AA@ 1003378c     LIBCMT:nlsdata2.obj
 0002:000017a0       ??_C@_1CI@KNAKOEBC@?$AAd?$AAd?$AAd?$AAd?$AA?0?$AA?5?$AAM?$AAM?$AAM?$AAM?$AA?5?$AAd?$AAd?$AA?0?$AA?5?$AAy?$AAy?$AAy?$AAy?$AA?$AA@ 100337a0     LIBCMT:nlsdata2.obj
 0002:000017c8       ??_C@_1BC@IEBCMHCM@?$AAM?$AAM?$AA?1?$AAd?$AAd?$AA?1?$AAy?$AAy?$AA?$AA@ 100337c8     LIBCMT:nlsdata2.obj
 0002:000017dc       ??_C@_15CLMNNGEL@?$AAP?$AAM?$AA?$AA@ 100337dc     LIBCMT:nlsdata2.obj
 0002:000017e4       ??_C@_15ODEHAHHF@?$AAA?$AAM?$AA?$AA@ 100337e4     LIBCMT:nlsdata2.obj
 0002:000017ec       ??_C@_1BC@FEMKIFH@?$AAD?$AAe?$AAc?$AAe?$AAm?$AAb?$AAe?$AAr?$AA?$AA@ 100337ec     LIBCMT:nlsdata2.obj
 0002:00001800       ??_C@_1BC@BGLIFPF@?$AAN?$AAo?$AAv?$AAe?$AAm?$AAb?$AAe?$AAr?$AA?$AA@ 10033800     LIBCMT:nlsdata2.obj
 0002:00001814       ??_C@_1BA@EPANDLNG@?$AAO?$AAc?$AAt?$AAo?$AAb?$AAe?$AAr?$AA?$AA@ 10033814     LIBCMT:nlsdata2.obj
 0002:00001824       ??_C@_1BE@DKAAMBJL@?$AAS?$AAe?$AAp?$AAt?$AAe?$AAm?$AAb?$AAe?$AAr?$AA?$AA@ 10033824     LIBCMT:nlsdata2.obj
 0002:00001838       ??_C@_1O@PAHLKOAC@?$AAA?$AAu?$AAg?$AAu?$AAs?$AAt?$AA?$AA@ 10033838     LIBCMT:nlsdata2.obj
 0002:00001848       ??_C@_19BIFMLPCD@?$AAJ?$AAu?$AAl?$AAy?$AA?$AA@ 10033848     LIBCMT:nlsdata2.obj
 0002:00001854       ??_C@_19EPFLPGAP@?$AAJ?$AAu?$AAn?$AAe?$AA?$AA@ 10033854     LIBCMT:nlsdata2.obj
 0002:00001860       ??_C@_1M@GJNLMHFD@?$AAA?$AAp?$AAr?$AAi?$AAl?$AA?$AA@ 10033860     LIBCMT:nlsdata2.obj
 0002:0000186c       ??_C@_1M@IKEENEDF@?$AAM?$AAa?$AAr?$AAc?$AAh?$AA?$AA@ 1003386c     LIBCMT:nlsdata2.obj
 0002:00001878       ??_C@_1BC@JGDDFFAM@?$AAF?$AAe?$AAb?$AAr?$AAu?$AAa?$AAr?$AAy?$AA?$AA@ 10033878     LIBCMT:nlsdata2.obj
 0002:0000188c       ??_C@_1BA@EFMEIEBA@?$AAJ?$AAa?$AAn?$AAu?$AAa?$AAr?$AAy?$AA?$AA@ 1003388c     LIBCMT:nlsdata2.obj
 0002:0000189c       ??_C@_17EGKACKIF@?$AAD?$AAe?$AAc?$AA?$AA@ 1003389c     LIBCMT:nlsdata2.obj
 0002:000018a4       ??_C@_17BBDMLCIG@?$AAN?$AAo?$AAv?$AA?$AA@ 100338a4     LIBCMT:nlsdata2.obj
 0002:000018ac       ??_C@_17FNLKOI@?$AAO?$AAc?$AAt?$AA?$AA@ 100338ac     LIBCMT:nlsdata2.obj
 0002:000018b4       ??_C@_17HCHCOKMG@?$AAS?$AAe?$AAp?$AA?$AA@ 100338b4     LIBCMT:nlsdata2.obj
 0002:000018bc       ??_C@_17ICPELBCN@?$AAA?$AAu?$AAg?$AA?$AA@ 100338bc     LIBCMT:nlsdata2.obj
 0002:000018c4       ??_C@_17IJPCKHK@?$AAJ?$AAu?$AAl?$AA?$AA@ 100338c4     LIBCMT:nlsdata2.obj
 0002:000018cc       ??_C@_17KCJGOCPB@?$AAJ?$AAu?$AAn?$AA?$AA@ 100338cc     LIBCMT:nlsdata2.obj
 0002:000018d4       ??_C@_17PNNKMEED@?$AAM?$AAa?$AAy?$AA?$AA@ 100338d4     LIBCMT:nlsdata2.obj
 0002:000018dc       ??_C@_17LFPOIHDD@?$AAA?$AAp?$AAr?$AA?$AA@ 100338dc     LIBCMT:nlsdata2.obj
 0002:000018e4       ??_C@_17CKNLEDEC@?$AAM?$AAa?$AAr?$AA?$AA@ 100338e4     LIBCMT:nlsdata2.obj
 0002:000018ec       ??_C@_17LMDJEKJN@?$AAF?$AAe?$AAb?$AA?$AA@ 100338ec     LIBCMT:nlsdata2.obj
 0002:000018f4       ??_C@_17DKNBKCHM@?$AAJ?$AAa?$AAn?$AA?$AA@ 100338f4     LIBCMT:nlsdata2.obj
 0002:000018fc       ??_C@_1BC@ENMNNPAJ@?$AAS?$AAa?$AAt?$AAu?$AAr?$AAd?$AAa?$AAy?$AA?$AA@ 100338fc     LIBCMT:nlsdata2.obj
 0002:00001910       ??_C@_1O@PDICJHAG@?$AAF?$AAr?$AAi?$AAd?$AAa?$AAy?$AA?$AA@ 10033910     LIBCMT:nlsdata2.obj
 0002:00001920       ??_C@_1BC@HHMNLIHE@?$AAT?$AAh?$AAu?$AAr?$AAs?$AAd?$AAa?$AAy?$AA?$AA@ 10033920     LIBCMT:nlsdata2.obj
 0002:00001934       ??_C@_1BE@EBOGMDOH@?$AAW?$AAe?$AAd?$AAn?$AAe?$AAs?$AAd?$AAa?$AAy?$AA?$AA@ 10033934     LIBCMT:nlsdata2.obj
 0002:00001948       ??_C@_1BA@ENFBFFEK@?$AAT?$AAu?$AAe?$AAs?$AAd?$AAa?$AAy?$AA?$AA@ 10033948     LIBCMT:nlsdata2.obj
 0002:00001958       ??_C@_1O@MMNBFLIA@?$AAM?$AAo?$AAn?$AAd?$AAa?$AAy?$AA?$AA@ 10033958     LIBCMT:nlsdata2.obj
 0002:00001968       ??_C@_1O@IHNHDHPB@?$AAS?$AAu?$AAn?$AAd?$AAa?$AAy?$AA?$AA@ 10033968     LIBCMT:nlsdata2.obj
 0002:00001978       ??_C@_17GGIBDPIH@?$AAS?$AAa?$AAt?$AA?$AA@ 10033978     LIBCMT:nlsdata2.obj
 0002:00001980       ??_C@_17HFOLPPLP@?$AAF?$AAr?$AAi?$AA?$AA@ 10033980     LIBCMT:nlsdata2.obj
 0002:00001988       ??_C@_17PDPHAADD@?$AAT?$AAh?$AAu?$AA?$AA@ 10033988     LIBCMT:nlsdata2.obj
 0002:00001990       ??_C@_17CJEDCEPE@?$AAW?$AAe?$AAd?$AA?$AA@ 10033990     LIBCMT:nlsdata2.obj
 0002:00001998       ??_C@_17BMKGEGOJ@?$AAT?$AAu?$AAe?$AA?$AA@ 10033998     LIBCMT:nlsdata2.obj
 0002:000019a0       ??_C@_17KBOMKBF@?$AAM?$AAo?$AAn?$AA?$AA@ 100339a0     LIBCMT:nlsdata2.obj
 0002:000019a8       ??_C@_17MBGCMIPB@?$AAS?$AAu?$AAn?$AA?$AA@ 100339a8     LIBCMT:nlsdata2.obj
 0002:000019b0       ??_C@_08JCCMCCIL@HH?3mm?3ss?$AA@ 100339b0     LIBCMT:nlsdata2.obj
 0002:000019bc       ??_C@_0BE@CKGJFCPC@dddd?0?5MMMM?5dd?0?5yyyy?$AA@ 100339bc     LIBCMT:nlsdata2.obj
 0002:000019d0       ??_C@_08BPBNCDIB@MM?1dd?1yy?$AA@ 100339d0     LIBCMT:nlsdata2.obj
 0002:000019dc       ??_C@_02CJNFDJBF@PM?$AA@   100339dc     LIBCMT:nlsdata2.obj
 0002:000019e0       ??_C@_02DEDBPAFC@AM?$AA@   100339e0     LIBCMT:nlsdata2.obj
 0002:000019e4       ??_C@_08EDHMEBNP@December?$AA@ 100339e4     LIBCMT:nlsdata2.obj
 0002:000019f0       ??_C@_08HCHEGEOA@November?$AA@ 100339f0     LIBCMT:nlsdata2.obj
 0002:000019fc       ??_C@_07JJNFCEND@October?$AA@ 100339fc     LIBCMT:nlsdata2.obj
 0002:00001a04       ??_C@_09BHHEALKD@September?$AA@ 10033a04     LIBCMT:nlsdata2.obj
 0002:00001a10       ??_C@_06LBBHFDDG@August?$AA@ 10033a10     LIBCMT:nlsdata2.obj
 0002:00001a18       ??_C@_04MIEPOIFP@July?$AA@ 10033a18     LIBCMT:nlsdata2.obj
 0002:00001a20       ??_C@_04CNLMGBGM@June?$AA@ 10033a20     LIBCMT:nlsdata2.obj
 0002:00001a28       ??_C@_05DMJDNLEJ@April?$AA@ 10033a28     LIBCMT:nlsdata2.obj
 0002:00001a30       ??_C@_05HPCKOFNC@March?$AA@ 10033a30     LIBCMT:nlsdata2.obj
 0002:00001a38       ??_C@_08GNJGEPFN@February?$AA@ 10033a38     LIBCMT:nlsdata2.obj
 0002:00001a44       ??_C@_07CGJPFGJA@January?$AA@ 10033a44     LIBCMT:nlsdata2.obj
 0002:00001a4c       ??_C@_03MKABNOCG@Dec?$AA@  10033a4c     LIBCMT:nlsdata2.obj
 0002:00001a50       ??_C@_03JPJOFNIA@Nov?$AA@  10033a50     LIBCMT:nlsdata2.obj
 0002:00001a54       ??_C@_03BMAOKBAD@Oct?$AA@  10033a54     LIBCMT:nlsdata2.obj
 0002:00001a58       ??_C@_03GGCAPAJC@Sep?$AA@  10033a58     LIBCMT:nlsdata2.obj
 0002:00001a5c       ??_C@_03IFJFEIGA@Aug?$AA@  10033a5c     LIBCMT:nlsdata2.obj
 0002:00001a60       ??_C@_03LBGABGKK@Jul?$AA@  10033a60     LIBCMT:nlsdata2.obj
 0002:00001a64       ??_C@_03IDFGHECI@Jun?$AA@  10033a64     LIBCMT:nlsdata2.obj
 0002:00001a68       ??_C@_03CNMDKL@May?$AA@    10033a68     LIBCMT:nlsdata2.obj
 0002:00001a6c       ??_C@_03LEOLGMJP@Apr?$AA@  10033a6c     LIBCMT:nlsdata2.obj
 0002:00001a70       ??_C@_03ODNJBKGA@Mar?$AA@  10033a70     LIBCMT:nlsdata2.obj
 0002:00001a74       ??_C@_03HJBDCHOM@Feb?$AA@  10033a74     LIBCMT:nlsdata2.obj
 0002:00001a78       ??_C@_03JIHJHPIE@Jan?$AA@  10033a78     LIBCMT:nlsdata2.obj
 0002:00001a7c       ??_C@_08INBOOONO@Saturday?$AA@ 10033a7c     LIBCMT:nlsdata2.obj
 0002:00001a88       ??_C@_06JECMNKMI@Friday?$AA@ 10033a88     LIBCMT:nlsdata2.obj
 0002:00001a90       ??_C@_08HACCIKIA@Thursday?$AA@ 10033a90     LIBCMT:nlsdata2.obj
 0002:00001a9c       ??_C@_09DLIGFAKA@Wednesday?$AA@ 10033a9c     LIBCMT:nlsdata2.obj
 0002:00001aa8       ??_C@_07BAAGCFCM@Tuesday?$AA@ 10033aa8     LIBCMT:nlsdata2.obj
 0002:00001ab0       ??_C@_06JLEDEDGH@Monday?$AA@ 10033ab0     LIBCMT:nlsdata2.obj
 0002:00001ab8       ??_C@_06OOPIFAJ@Sunday?$AA@ 10033ab8     LIBCMT:nlsdata2.obj
 0002:00001ac0       ??_C@_03FEFJNEK@Sat?$AA@   10033ac0     LIBCMT:nlsdata2.obj
 0002:00001ac4       ??_C@_03IDIOELNC@Fri?$AA@  10033ac4     LIBCMT:nlsdata2.obj
 0002:00001ac8       ??_C@_03IOFIKPDN@Thu?$AA@  10033ac8     LIBCMT:nlsdata2.obj
 0002:00001acc       ??_C@_03MHOMLAJA@Wed?$AA@  10033acc     LIBCMT:nlsdata2.obj
 0002:00001ad0       ??_C@_03NAGEINEP@Tue?$AA@  10033ad0     LIBCMT:nlsdata2.obj
 0002:00001ad4       ??_C@_03PDAGKDH@Mon?$AA@   10033ad4     LIBCMT:nlsdata2.obj
 0002:00001ad8       ??_C@_03KOEHGMDN@Sun?$AA@  10033ad8     LIBCMT:nlsdata2.obj
 0002:00001adc       ___dnames                  10033adc     LIBCMT:timeset.obj
 0002:00001af4       ___mnames                  10033af4     LIBCMT:timeset.obj
 0002:00001b1c       ??_C@_02CLFPBFFP@TZ?$AA@   10033b1c     LIBCMT:tzset.obj
 0002:00001b20       ___lookuptable_s           10033b20     LIBCMT:outputs.obj
 0002:00001c00       ??_C@_01NEMOKFLO@?$DN?$AA@ 10033c00     LIBCMT:setlocal.obj
 0002:00001c04       ??_C@_0P@MIGLKIOC@CorExitProcess?$AA@ 10033c04     LIBCMT:crt0dat.obj
 0002:00001c14       ??_C@_1BI@BGOHAHKC@?$AAm?$AAs?$AAc?$AAo?$AAr?$AAe?$AAe?$AA?4?$AAd?$AAl?$AAl?$AA?$AA@ 10033c14     LIBCMT:crt0dat.obj
 0002:00001c2c       ??_C@_1BO@BKOMIGKJ@?$AAr?$AAu?$AAn?$AAt?$AAi?$AAm?$AAe?$AA?5?$AAe?$AAr?$AAr?$AAo?$AAr?$AA?5?$AA?$AA@ 10033c2c     LIBCMT:crt0msg.obj
 0002:00001c4c       ??_C@_15JNBOKNOG@?$AA?$AN?$AA?6?$AA?$AA@ 10033c4c     LIBCMT:crt0msg.obj
 0002:00001c54       ??_C@_1BM@JBBEPPHI@?$AAT?$AAL?$AAO?$AAS?$AAS?$AA?5?$AAe?$AAr?$AAr?$AAo?$AAr?$AA?$AN?$AA?6?$AA?$AA@ 10033c54     LIBCMT:crt0msg.obj
 0002:00001c70       ??_C@_1BK@KMOMNAAI@?$AAS?$AAI?$AAN?$AAG?$AA?5?$AAe?$AAr?$AAr?$AAo?$AAr?$AA?$AN?$AA?6?$AA?$AA@ 10033c70     LIBCMT:crt0msg.obj
 0002:00001c8c       ??_C@_1BO@BFCDCGC@?$AAD?$AAO?$AAM?$AAA?$AAI?$AAN?$AA?5?$AAe?$AAr?$AAr?$AAo?$AAr?$AA?$AN?$AA?6?$AA?$AA@ 10033c8c     LIBCMT:crt0msg.obj
 0002:00001cb0       ??_C@_1BOO@KGEDBGAJ@?$AAR?$AA6?$AA0?$AA3?$AA3?$AA?$AN?$AA?6?$AA?9?$AA?5?$AAA?$AAt?$AAt?$AAe?$AAm?$AAp?$AAt?$AA?5?$AAt?$AAo?$AA?5?$AAu?$AAs?$AAe?$AA?5?$AAM?$AAS?$AAI?$AAL?$AA?5?$AAc?$AAo?$AAd@ 10033cb0     LIBCMT:crt0msg.obj
 0002:00001ea0       ??_C@_1GG@GOPILAJP@?$AAR?$AA6?$AA0?$AA3?$AA2?$AA?$AN?$AA?6?$AA?9?$AA?5?$AAn?$AAo?$AAt?$AA?5?$AAe?$AAn?$AAo?$AAu?$AAg?$AAh?$AA?5?$AAs?$AAp?$AAa?$AAc?$AAe?$AA?5?$AAf?$AAo?$AAr?$AA?5?$AAl?$AAo@ 10033ea0     LIBCMT:crt0msg.obj
 0002:00001f08       ??_C@_1MG@ENCOOIDF@?$AAR?$AA6?$AA0?$AA3?$AA1?$AA?$AN?$AA?6?$AA?9?$AA?5?$AAA?$AAt?$AAt?$AAe?$AAm?$AAp?$AAt?$AA?5?$AAt?$AAo?$AA?5?$AAi?$AAn?$AAi?$AAt?$AAi?$AAa?$AAl?$AAi?$AAz?$AAe?$AA?5?$AAt@ 10033f08     LIBCMT:crt0msg.obj
 0002:00001fd0       ??_C@_1DO@BMFCDCD@?$AAR?$AA6?$AA0?$AA3?$AA0?$AA?$AN?$AA?6?$AA?9?$AA?5?$AAC?$AAR?$AAT?$AA?5?$AAn?$AAo?$AAt?$AA?5?$AAi?$AAn?$AAi?$AAt?$AAi?$AAa?$AAl?$AAi?$AAz?$AAe?$AAd?$AA?$AN?$AA?6?$AA?$AA@ 10033fd0     LIBCMT:crt0msg.obj
 0002:00002010       ??_C@_1EK@HHFLMAOL@?$AAR?$AA6?$AA0?$AA2?$AA8?$AA?$AN?$AA?6?$AA?9?$AA?5?$AAu?$AAn?$AAa?$AAb?$AAl?$AAe?$AA?5?$AAt?$AAo?$AA?5?$AAi?$AAn?$AAi?$AAt?$AAi?$AAa?$AAl?$AAi?$AAz?$AAe?$AA?5?$AAh?$AAe@ 10034010     LIBCMT:crt0msg.obj
 0002:00002060       ??_C@_1GK@MFGOKLAG@?$AAR?$AA6?$AA0?$AA2?$AA7?$AA?$AN?$AA?6?$AA?9?$AA?5?$AAn?$AAo?$AAt?$AA?5?$AAe?$AAn?$AAo?$AAu?$AAg?$AAh?$AA?5?$AAs?$AAp?$AAa?$AAc?$AAe?$AA?5?$AAf?$AAo?$AAr?$AA?5?$AAl?$AAo@ 10034060     LIBCMT:crt0msg.obj
 0002:000020d0       ??_C@_1GK@MCAAGJMO@?$AAR?$AA6?$AA0?$AA2?$AA6?$AA?$AN?$AA?6?$AA?9?$AA?5?$AAn?$AAo?$AAt?$AA?5?$AAe?$AAn?$AAo?$AAu?$AAg?$AAh?$AA?5?$AAs?$AAp?$AAa?$AAc?$AAe?$AA?5?$AAf?$AAo?$AAr?$AA?5?$AAs?$AAt@ 100340d0     LIBCMT:crt0msg.obj
 0002:00002140       ??_C@_1EM@MAADIHMB@?$AAR?$AA6?$AA0?$AA2?$AA5?$AA?$AN?$AA?6?$AA?9?$AA?5?$AAp?$AAu?$AAr?$AAe?$AA?5?$AAv?$AAi?$AAr?$AAt?$AAu?$AAa?$AAl?$AA?5?$AAf?$AAu?$AAn?$AAc?$AAt?$AAi?$AAo?$AAn?$AA?5?$AAc@ 10034140     LIBCMT:crt0msg.obj
 0002:00002190       ??_C@_1GK@FHCKBEFA@?$AAR?$AA6?$AA0?$AA2?$AA4?$AA?$AN?$AA?6?$AA?9?$AA?5?$AAn?$AAo?$AAt?$AA?5?$AAe?$AAn?$AAo?$AAu?$AAg?$AAh?$AA?5?$AAs?$AAp?$AAa?$AAc?$AAe?$AA?5?$AAf?$AAo?$AAr?$AA?5?$AA_?$AAo@ 10034190     LIBCMT:crt0msg.obj
 0002:00002200       ??_C@_1FC@ECHBIFBC@?$AAR?$AA6?$AA0?$AA1?$AA9?$AA?$AN?$AA?6?$AA?9?$AA?5?$AAu?$AAn?$AAa?$AAb?$AAl?$AAe?$AA?5?$AAt?$AAo?$AA?5?$AAo?$AAp?$AAe?$AAn?$AA?5?$AAc?$AAo?$AAn?$AAs?$AAo?$AAl?$AAe?$AA?5@ 10034200     LIBCMT:crt0msg.obj
 0002:00002258       ??_C@_1EC@JIBHAOPH@?$AAR?$AA6?$AA0?$AA1?$AA8?$AA?$AN?$AA?6?$AA?9?$AA?5?$AAu?$AAn?$AAe?$AAx?$AAp?$AAe?$AAc?$AAt?$AAe?$AAd?$AA?5?$AAh?$AAe?$AAa?$AAp?$AA?5?$AAe?$AAr?$AAr?$AAo?$AAr?$AA?$AN?$AA?6@ 10034258     LIBCMT:crt0msg.obj
 0002:000022a0       ??_C@_1FK@BEOGODMC@?$AAR?$AA6?$AA0?$AA1?$AA7?$AA?$AN?$AA?6?$AA?9?$AA?5?$AAu?$AAn?$AAe?$AAx?$AAp?$AAe?$AAc?$AAt?$AAe?$AAd?$AA?5?$AAm?$AAu?$AAl?$AAt?$AAi?$AAt?$AAh?$AAr?$AAe?$AAa?$AAd?$AA?5@ 100342a0     LIBCMT:crt0msg.obj
 0002:00002300       ??_C@_1FI@LOGNIKDM@?$AAR?$AA6?$AA0?$AA1?$AA6?$AA?$AN?$AA?6?$AA?9?$AA?5?$AAn?$AAo?$AAt?$AA?5?$AAe?$AAn?$AAo?$AAu?$AAg?$AAh?$AA?5?$AAs?$AAp?$AAa?$AAc?$AAe?$AA?5?$AAf?$AAo?$AAr?$AA?5?$AAt?$AAh@ 10034300     LIBCMT:crt0msg.obj
 0002:00002358       ??_C@_1EG@BEHAGFJD@?$AAR?$AA6?$AA0?$AA1?$AA0?$AA?$AN?$AA?6?$AA?9?$AA?5?$AAa?$AAb?$AAo?$AAr?$AAt?$AA?$CI?$AA?$CJ?$AA?5?$AAh?$AAa?$AAs?$AA?5?$AAb?$AAe?$AAe?$AAn?$AA?5?$AAc?$AAa?$AAl?$AAl?$AAe?$AAd@ 10034358     LIBCMT:crt0msg.obj
 0002:000023a0       ??_C@_1FI@HONFMGBI@?$AAR?$AA6?$AA0?$AA0?$AA9?$AA?$AN?$AA?6?$AA?9?$AA?5?$AAn?$AAo?$AAt?$AA?5?$AAe?$AAn?$AAo?$AAu?$AAg?$AAh?$AA?5?$AAs?$AAp?$AAa?$AAc?$AAe?$AA?5?$AAf?$AAo?$AAr?$AA?5?$AAe?$AAn@ 100343a0     LIBCMT:crt0msg.obj
 0002:000023f8       ??_C@_1FE@LLNEDJMD@?$AAR?$AA6?$AA0?$AA0?$AA8?$AA?$AN?$AA?6?$AA?9?$AA?5?$AAn?$AAo?$AAt?$AA?5?$AAe?$AAn?$AAo?$AAu?$AAg?$AAh?$AA?5?$AAs?$AAp?$AAa?$AAc?$AAe?$AA?5?$AAf?$AAo?$AAr?$AA?5?$AAa?$AAr@ 100343f8     LIBCMT:crt0msg.obj
 0002:00002450       ??_C@_1FK@PGACCAFB@?$AAR?$AA6?$AA0?$AA0?$AA2?$AA?$AN?$AA?6?$AA?9?$AA?5?$AAf?$AAl?$AAo?$AAa?$AAt?$AAi?$AAn?$AAg?$AA?5?$AAp?$AAo?$AAi?$AAn?$AAt?$AA?5?$AAs?$AAu?$AAp?$AAp?$AAo?$AAr?$AAt?$AA?5@ 10034450     LIBCMT:crt0msg.obj
 0002:00002560       ??_C@_1EK@MBDPDCGA@?$AAM?$AAi?$AAc?$AAr?$AAo?$AAs?$AAo?$AAf?$AAt?$AA?5?$AAV?$AAi?$AAs?$AAu?$AAa?$AAl?$AA?5?$AAC?$AA?$CL?$AA?$CL?$AA?5?$AAR?$AAu?$AAn?$AAt?$AAi?$AAm?$AAe?$AA?5?$AAL?$AAi?$AAb@ 10034560     LIBCMT:crt0msg.obj
 0002:000025ac       ??_C@_15IABLJNFO@?$AA?6?$AA?6?$AA?$AA@ 100345ac     LIBCMT:crt0msg.obj
 0002:000025b4       ??_C@_17LGKOMLJ@?$AA?4?$AA?4?$AA?4?$AA?$AA@ 100345b4     LIBCMT:crt0msg.obj
 0002:000025bc       ??_C@_1CO@EAEJAADC@?$AA?$DM?$AAp?$AAr?$AAo?$AAg?$AAr?$AAa?$AAm?$AA?5?$AAn?$AAa?$AAm?$AAe?$AA?5?$AAu?$AAn?$AAk?$AAn?$AAo?$AAw?$AAn?$AA?$DO?$AA?$AA@ 100345bc     LIBCMT:crt0msg.obj
 0002:000025ec       ??_C@_1DE@JNGNBFGO@?$AAR?$AAu?$AAn?$AAt?$AAi?$AAm?$AAe?$AA?5?$AAE?$AAr?$AAr?$AAo?$AAr?$AA?$CB?$AA?6?$AA?6?$AAP?$AAr?$AAo?$AAg?$AAr?$AAa?$AAm?$AA?3?$AA?5?$AA?$AA@ 100345ec     LIBCMT:crt0msg.obj
 0002:00002ec0       __indefinite               10034ec0     LIBCMT:_87disp_.obj
 0002:00002eca       __piby2                    10034eca     LIBCMT:_87disp_.obj
 0002:00002ef8       __DEFAULT_CW_in_mem        10034ef8     LIBCMT:_common_.obj
 0002:00002efa       __pi_by_2_to_61            10034efa     LIBCMT:_common_.obj
 0002:000037f0       __XcptActTab               100357f0     LIBCMT:winxfltr.obj
 0002:00003880       __First_FPE_Indx           10035880     LIBCMT:winxfltr.obj
 0002:00003884       __Num_FPE                  10035884     LIBCMT:winxfltr.obj
 0002:00003888       __XcptActTabSize           10035888     LIBCMT:winxfltr.obj
 0002:0000388c       __XcptActTabCount          1003588c     LIBCMT:winxfltr.obj
 0002:000038ac       ??_C@_1CK@HHHCOJPD@?$AAE?$AAn?$AAv?$AAi?$AAr?$AAo?$AAn?$AAm?$AAe?$AAn?$AAt?$AAD?$AAi?$AAr?$AAe?$AAc?$AAt?$AAo?$AAr?$AAy?$AA?$AA@ 100358ac     LIBCMT:_pdblkup_.obj
 0002:000038d8       ??_C@_1FM@DNCABAP@?$AAS?$AAO?$AAF?$AAT?$AAW?$AAA?$AAR?$AAE?$AA?2?$AAM?$AAi?$AAc?$AAr?$AAo?$AAs?$AAo?$AAf?$AAt?$AA?2?$AAV?$AAi?$AAs?$AAu?$AAa?$AAl?$AAS?$AAt?$AAu?$AAd?$AAi?$AAo?$AA?2@ 100358d8     LIBCMT:_pdblkup_.obj
 0002:00003934       ??_C@_0M@HLOHPNFA@RegCloseKey?$AA@ 10035934     LIBCMT:_pdblkup_.obj
 0002:00003940       ??_C@_0BB@GLNAEDBD@RegQueryValueExW?$AA@ 10035940     LIBCMT:_pdblkup_.obj
 0002:00003954       ??_C@_0O@COHOBMLB@RegOpenKeyExW?$AA@ 10035954     LIBCMT:_pdblkup_.obj
 0002:00003964       ??_C@_1BK@GAEMIDIL@?$AAA?$AAD?$AAV?$AAA?$AAP?$AAI?$AA3?$AA2?$AA?4?$AAD?$AAL?$AAL?$AA?$AA@ 10035964     LIBCMT:_pdblkup_.obj
 0002:00003980       ??_C@_01KDCPPGHE@r?$AA@    10035980     LIBCMT:_pdblkup_.obj
 0002:00003984       ??_C@_0BB@KCIACLNC@PDBOpenValidate5?$AA@ 10035984     LIBCMT:_pdblkup_.obj
 0002:00003998       ??_C@_0BK@CFCOFLF@?5Complete?5Object?5Locator?8?$AA@ 10035998     LIBCMT:undname.obj
 0002:000039b4       ??_C@_0BN@MECKDCOJ@?5Class?5Hierarchy?5Descriptor?8?$AA@ 100359b4     LIBCMT:undname.obj
 0002:000039d4       ??_C@_0BD@LGICGFMM@?5Base?5Class?5Array?8?$AA@ 100359d4     LIBCMT:undname.obj
 0002:000039e8       ??_C@_0BM@LDKODKLH@?5Base?5Class?5Descriptor?5at?5?$CI?$AA@ 100359e8     LIBCMT:undname.obj
 0002:00003a04       ??_C@_0BC@DAFEJGAK@?5Type?5Descriptor?8?$AA@ 10035a04     LIBCMT:undname.obj
 0002:00003a18       ??_C@_0BM@PMGGMLDN@?$GAlocal?5static?5thread?5guard?8?$AA@ 10035a18     LIBCMT:undname.obj
 0002:00003a34       ??_C@_0CL@FGIJHLCE@?$GAmanaged?5vector?5copy?5constructor@ 10035a34     LIBCMT:undname.obj
 0002:00003a60       ??_C@_0CJ@GJELGAMM@?$GAvector?5vbase?5copy?5constructor?5i@ 10035a60     LIBCMT:undname.obj
 0002:00003a8c       ??_C@_0CD@CGAJBKEJ@?$GAvector?5copy?5constructor?5iterato@ 10035a8c     LIBCMT:undname.obj
 0002:00003ab0       ??_C@_0CB@PDBIFEP@?$GAdynamic?5atexit?5destructor?5for?5?8@ 10035ab0     LIBCMT:undname.obj
 0002:00003ad4       ??_C@_0BL@CLIPGLGB@?$GAdynamic?5initializer?5for?5?8?$AA@ 10035ad4     LIBCMT:undname.obj
 0002:00003af0       ??_C@_0CM@FCBBDIGB@?$GAeh?5vector?5vbase?5copy?5constructo@ 10035af0     LIBCMT:undname.obj
 0002:00003b1c       ??_C@_0CG@HLDDJMAG@?$GAeh?5vector?5copy?5constructor?5iter@ 10035b1c     LIBCMT:undname.obj
 0002:00003b44       ??_C@_0CF@IMGKMJNO@?$GAmanaged?5vector?5destructor?5itera@ 10035b44     LIBCMT:undname.obj
 0002:00003b6c       ??_C@_0CG@CFDHKGGD@?$GAmanaged?5vector?5constructor?5iter@ 10035b6c     LIBCMT:undname.obj
 0002:00003b94       ??_C@_0BN@CKNJLHMB@?$GAplacement?5delete?$FL?$FN?5closure?8?$AA@ 10035b94     LIBCMT:undname.obj
 0002:00003bb4       ??_C@_0BL@CNOONJFP@?$GAplacement?5delete?5closure?8?$AA@ 10035bb4     LIBCMT:undname.obj
 0002:00003bd0       ??_C@_0P@HJKNJFNN@?$GAomni?5callsig?8?$AA@ 10035bd0     LIBCMT:undname.obj
 0002:00003be0       ??_C@_09LBNFPBCA@?5delete?$FL?$FN?$AA@ 10035be0     LIBCMT:undname.obj
 0002:00003bec       ??_C@_06FHBGPFGH@?5new?$FL?$FN?$AA@ 10035bec     LIBCMT:undname.obj
 0002:00003bf4       ??_C@_0CE@IIHCMGGL@?$GAlocal?5vftable?5constructor?5closu@ 10035bf4     LIBCMT:undname.obj
 0002:00003c18       ??_C@_0BA@KKLDJDLB@?$GAlocal?5vftable?8?$AA@ 10035c18     LIBCMT:undname.obj
 0002:00003c28       ??_C@_05KHLCHHI@?$GARTTI?$AA@ 10035c28     LIBCMT:undname.obj
 0002:00003c30       ??_C@_03KLGMFNMG@?$GAEH?$AA@ 10035c30     LIBCMT:undname.obj
 0002:00003c34       ??_C@_0BA@KBCDOMBN@?$GAudt?5returning?8?$AA@ 10035c34     LIBCMT:undname.obj
 0002:00003c44       ??_C@_0BL@LLKPOHJI@?$GAcopy?5constructor?5closure?8?$AA@ 10035c44     LIBCMT:undname.obj
 0002:00003c60       ??_C@_0CH@OOJPLCPH@?$GAeh?5vector?5vbase?5constructor?5ite@ 10035c60     LIBCMT:undname.obj
 0002:00003c88       ??_C@_0CA@GCEOPDGL@?$GAeh?5vector?5destructor?5iterator?8?$AA@ 10035c88     LIBCMT:undname.obj
 0002:00003ca8       ??_C@_0CB@JONCMFFK@?$GAeh?5vector?5constructor?5iterator?8@ 10035ca8     LIBCMT:undname.obj
 0002:00003ccc       ??_C@_0BL@NILFHHPC@?$GAvirtual?5displacement?5map?8?$AA@ 10035ccc     LIBCMT:undname.obj
 0002:00003ce8       ??_C@_0CE@IKBNEHA@?$GAvector?5vbase?5constructor?5iterat@ 10035ce8     LIBCMT:undname.obj
 0002:00003d0c       ??_C@_0BN@LFPFMEDL@?$GAvector?5destructor?5iterator?8?$AA@ 10035d0c     LIBCMT:undname.obj
 0002:00003d2c       ??_C@_0BO@PFGOCPJJ@?$GAvector?5constructor?5iterator?8?$AA@ 10035d2c     LIBCMT:undname.obj
 0002:00003d4c       ??_C@_0BN@IMDCHIKM@?$GAscalar?5deleting?5destructor?8?$AA@ 10035d4c     LIBCMT:undname.obj
 0002:00003d6c       ??_C@_0BO@OBMKPJIG@?$GAdefault?5constructor?5closure?8?$AA@ 10035d6c     LIBCMT:undname.obj
 0002:00003d8c       ??_C@_0BN@DEGPLNFK@?$GAvector?5deleting?5destructor?8?$AA@ 10035d8c     LIBCMT:undname.obj
 0002:00003dac       ??_C@_0BD@JDLKDPAB@?$GAvbase?5destructor?8?$AA@ 10035dac     LIBCMT:undname.obj
 0002:00003dc0       ??_C@_08OBABFOLI@?$GAstring?8?$AA@ 10035dc0     LIBCMT:undname.obj
 0002:00003dcc       ??_C@_0BF@KDPPACIK@?$GAlocal?5static?5guard?8?$AA@ 10035dcc     LIBCMT:undname.obj
 0002:00003de4       ??_C@_08LLFFHHDJ@?$GAtypeof?8?$AA@ 10035de4     LIBCMT:undname.obj
 0002:00003df0       ??_C@_07FEEIOKP@?$GAvcall?8?$AA@ 10035df0     LIBCMT:undname.obj
 0002:00003df8       ??_C@_09BLBHBJP@?$GAvbtable?8?$AA@ 10035df8     LIBCMT:undname.obj
 0002:00003e04       ??_C@_09IFPLHPGF@?$GAvftable?8?$AA@ 10035e04     LIBCMT:undname.obj
 0002:00003e10       ??_C@_02MHEGNOJ@?$FO?$DN?$AA@ 10035e10     LIBCMT:undname.obj
 0002:00003e14       ??_C@_02DHLNPPGH@?$HM?$DN?$AA@ 10035e14     LIBCMT:undname.obj
 0002:00003e18       ??_C@_02FGJGFEAB@?$CG?$DN?$AA@ 10035e18     LIBCMT:undname.obj
 0002:00003e1c       ??_C@_03CDNPDDLA@?$DM?$DM?$DN?$AA@ 10035e1c     LIBCMT:undname.obj
 0002:00003e20       ??_C@_03IKFCCPFF@?$DO?$DO?$DN?$AA@ 10035e20     LIBCMT:undname.obj
 0002:00003e24       ??_C@_02FENAOKFI@?$CF?$DN?$AA@ 10035e24     LIBCMT:undname.obj
 0002:00003e28       ??_C@_02FJEHGPIO@?1?$DN?$AA@ 10035e28     LIBCMT:undname.obj
 0002:00003e2c       ??_C@_02FKMDLLOA@?9?$DN?$AA@ 10035e2c     LIBCMT:undname.obj
 0002:00003e30       ??_C@_02FOEOMHFC@?$CL?$DN?$AA@ 10035e30     LIBCMT:undname.obj
 0002:00003e34       ??_C@_02FPIMKNGF@?$CK?$DN?$AA@ 10035e34     LIBCMT:undname.obj
 0002:00003e38       ??_C@_02NONPIBCD@?$HM?$HM?$AA@ 10035e38     LIBCMT:undname.obj
 0002:00003e3c       ??_C@_02PPKAJPJL@?$CG?$CG?$AA@ 10035e3c     LIBCMT:undname.obj
 0002:00003e40       ??_C@_01DNKMNLPK@?$HM?$AA@ 10035e40     LIBCMT:undname.obj
 0002:00003e44       ??_C@_01JKBOJNNK@?$FO?$AA@ 10035e44     LIBCMT:undname.obj
 0002:00003e48       ??_C@_01PJKLJHI@?$HO?$AA@  10035e48     LIBCMT:undname.obj
 0002:00003e4c       ??_C@_02HCKGKOFO@?$CI?$CJ?$AA@ 10035e4c     LIBCMT:undname.obj
 0002:00003e50       ??_C@_01IHBHIGKO@?0?$AA@   10035e50     LIBCMT:undname.obj
 0002:00003e54       ??_C@_02EEKDKGMJ@?$DO?$DN?$AA@ 10035e54     LIBCMT:undname.obj
 0002:00003e58       ??_C@_01PPODPGHN@?$DO?$AA@ 10035e58     LIBCMT:undname.obj
 0002:00003e5c       ??_C@_02EHCHHCKH@?$DM?$DN?$AA@ 10035e5c     LIBCMT:undname.obj
 0002:00003e60       ??_C@_01MNNFJEPP@?$DM?$AA@ 10035e60     LIBCMT:undname.obj
 0002:00003e64       ??_C@_01FGNFDNOH@?$CF?$AA@ 10035e64     LIBCMT:undname.obj
 0002:00003e68       ??_C@_01KMDKNFGN@?1?$AA@   10035e68     LIBCMT:undname.obj
 0002:00003e6c       ??_C@_03MNHNFDLC@?9?$DO?$CK?$AA@ 10035e6c     LIBCMT:undname.obj
 0002:00003e70       ??_C@_01HNPIGOCE@?$CG?$AA@ 10035e70     LIBCMT:undname.obj
 0002:00003e74       ??_C@_01MIFGBAGJ@?$CL?$AA@ 10035e74     LIBCMT:undname.obj
 0002:00003e78       ??_C@_01JOAMLHOP@?9?$AA@   10035e78     LIBCMT:undname.obj
 0002:00003e7c       ??_C@_02BAABKJLB@?9?9?$AA@ 10035e7c     LIBCMT:undname.obj
 0002:00003e80       ??_C@_02ECNGHCIF@?$CL?$CL?$AA@ 10035e80     LIBCMT:undname.obj
 0002:00003e84       ??_C@_01NBENCBCI@?$CK?$AA@ 10035e84     LIBCMT:undname.obj
 0002:00003e88       ??_C@_02HBOOOICD@?9?$DO?$AA@ 10035e88     LIBCMT:undname.obj
 0002:00003e8c       ??_C@_08LHJFAFGD@operator?$AA@ 10035e8c     LIBCMT:undname.obj
 0002:00003e98       ??_C@_02GPECMEKF@?$FL?$FN?$AA@ 10035e98     LIBCMT:undname.obj
 0002:00003e9c       ??_C@_02FDNJECIE@?$CB?$DN?$AA@ 10035e9c     LIBCMT:undname.obj
 0002:00003ea0       ??_C@_02EGOFBIJA@?$DN?$DN?$AA@ 10035ea0     LIBCMT:undname.obj
 0002:00003ea4       ??_C@_01DCLJPIOD@?$CB?$AA@ 10035ea4     LIBCMT:undname.obj
 0002:00003ea8       ??_C@_02FODMEDOG@?$DM?$DM?$AA@ 10035ea8     LIBCMT:undname.obj
 0002:00003eac       ??_C@_02GPIOPFAK@?$DO?$DO?$AA@ 10035eac     LIBCMT:undname.obj
 0002:00003eb0       ??_C@_07FPCDHGMM@?5delete?$AA@ 10035eb0     LIBCMT:undname.obj
 0002:00003eb8       ??_C@_04NIHEBCM@?5new?$AA@ 10035eb8     LIBCMT:undname.obj
 0002:00003ec0       ??_C@_0M@GFIIJFMG@__unaligned?$AA@ 10035ec0     LIBCMT:undname.obj
 0002:00003ecc       ??_C@_0L@PILCLIHE@__restrict?$AA@ 10035ecc     LIBCMT:undname.obj
 0002:00003ed8       ??_C@_07JOMMBBKO@__ptr64?$AA@ 10035ed8     LIBCMT:undname.obj
 0002:00003ee0       ??_C@_06GHPCKEAG@__eabi?$AA@ 10035ee0     LIBCMT:undname.obj
 0002:00003ee8       ??_C@_09HIJEGCPM@__clrcall?$AA@ 10035ee8     LIBCMT:undname.obj
 0002:00003ef4       ??_C@_0L@JMKHOMEK@__fastcall?$AA@ 10035ef4     LIBCMT:undname.obj
 0002:00003f00       ??_C@_0L@NPHFGOKO@__thiscall?$AA@ 10035f00     LIBCMT:undname.obj
 0002:00003f0c       ??_C@_09IFJBGAPI@__stdcall?$AA@ 10035f0c     LIBCMT:undname.obj
 0002:00003f18       ??_C@_08GHMPAG@__pascal?$AA@ 10035f18     LIBCMT:undname.obj
 0002:00003f24       ??_C@_07KOLFKCDI@__cdecl?$AA@ 10035f24     LIBCMT:undname.obj
 0002:00003f2c       ??_C@_08EHJDFFNH@__based?$CI?$AA@ 10035f2c     LIBCMT:undname.obj
 0002:000040c0       ___newctype                100360c0     LIBCMT:ctype.obj
 0002:000043c0       __wctype                   100363c0     LIBCMT:ctype.obj
 0002:000045c8       ___newclmap                100365c8     LIBCMT:ctype.obj
 0002:00004748       ___newcumap                10036748     LIBCMT:ctype.obj
 0002:000048c8       ??_C@_0BI@DFKBFLJE@GetProcessWindowStation?$AA@ 100368c8     LIBCMT:crtmboxw.obj
 0002:000048e0       ??_C@_0BK@DEKFELLI@GetUserObjectInformationW?$AA@ 100368e0     LIBCMT:crtmboxw.obj
 0002:000048fc       ??_C@_0BD@HHGDFDBJ@GetLastActivePopup?$AA@ 100368fc     LIBCMT:crtmboxw.obj
 0002:00004910       ??_C@_0BA@HNOPNCHB@GetActiveWindow?$AA@ 10036910     LIBCMT:crtmboxw.obj
 0002:00004920       ??_C@_0M@DLDCCGNP@MessageBoxW?$AA@ 10036920     LIBCMT:crtmboxw.obj
 0002:0000492c       ??_C@_1BG@GOEBHBDC@?$AAU?$AAS?$AAE?$AAR?$AA3?$AA2?$AA?4?$AAD?$AAL?$AAL?$AA?$AA@ 1003692c     LIBCMT:crtmboxw.obj
 0002:00004944       ??_C@_06IMKFLFPG@1?$CDQNAN?$AA@ 10036944     LIBCMT:_x10fout_.obj
 0002:0000494c       ??_C@_05DNEBIAHO@1?$CDINF?$AA@ 1003694c     LIBCMT:_x10fout_.obj
 0002:00004954       ??_C@_05PHHOCPM@1?$CDIND?$AA@ 10036954     LIBCMT:_x10fout_.obj
 0002:0000495c       ??_C@_06PGGFOGJG@1?$CDSNAN?$AA@ 1003695c     LIBCMT:_x10fout_.obj
 0002:00004964       ??_C@_0L@KDOEJCKC@_nextafter?$AA@ 10036964     LIBCMT:_fpexcept_.obj
 0002:00004970       ??_C@_05JGDBENOH@_logb?$AA@ 10036970     LIBCMT:_fpexcept_.obj
 0002:00004978       ??_C@_03ONILCKOB@_yn?$AA@  10036978     LIBCMT:_fpexcept_.obj
 0002:0000497c       ??_C@_03NAKIGLHK@_y1?$AA@  1003697c     LIBCMT:_fpexcept_.obj
 0002:00004980       ??_C@_03MJLDFKDL@_y0?$AA@  10036980     LIBCMT:_fpexcept_.obj
 0002:00004984       ??_C@_05GKKHEGJL@frexp?$AA@ 10036984     LIBCMT:_fpexcept_.obj
 0002:0000498c       ??_C@_04KEPJIHGP@fmod?$AA@ 1003698c     LIBCMT:_fpexcept_.obj
 0002:00004994       ??_C@_06MEIMCGCF@_hypot?$AA@ 10036994     LIBCMT:_fpexcept_.obj
 0002:0000499c       ??_C@_05KBKMEMPO@_cabs?$AA@ 1003699c     LIBCMT:_fpexcept_.obj
 0002:000049a4       ??_C@_05CEJMAHNP@ldexp?$AA@ 100369a4     LIBCMT:_fpexcept_.obj
 0002:000049ac       ??_C@_04EHEDPDJG@modf?$AA@ 100369ac     LIBCMT:_fpexcept_.obj
 0002:000049b4       ??_C@_04ODHECPBC@fabs?$AA@ 100369b4     LIBCMT:_fpexcept_.obj
 0002:000049bc       ??_C@_05PBJFFIGL@floor?$AA@ 100369bc     LIBCMT:_fpexcept_.obj
 0002:000049c4       ??_C@_04GFPJNGEK@ceil?$AA@ 100369c4     LIBCMT:_fpexcept_.obj
 0002:000049cc       ??_C@_03IIINPABG@tan?$AA@  100369cc     LIBCMT:_fpexcept_.obj
 0002:000049d0       ??_C@_03LALBNOCG@cos?$AA@  100369d0     LIBCMT:_fpexcept_.obj
 0002:000049d4       ??_C@_03BLEJJJBH@sin?$AA@  100369d4     LIBCMT:_fpexcept_.obj
 0002:000049d8       ??_C@_04EIAKFFMI@sqrt?$AA@ 100369d8     LIBCMT:_fpexcept_.obj
 0002:000049e0       ??_C@_05KNGEOGJB@atan2?$AA@ 100369e0     LIBCMT:_fpexcept_.obj
 0002:000049e8       ??_C@_04MLLJIGOK@atan?$AA@ 100369e8     LIBCMT:_fpexcept_.obj
 0002:000049f0       ??_C@_04PDIFKINK@acos?$AA@ 100369f0     LIBCMT:_fpexcept_.obj
 0002:000049f8       ??_C@_04FIHNOPOL@asin?$AA@ 100369f8     LIBCMT:_fpexcept_.obj
 0002:00004a00       ??_C@_04FJHINJAO@tanh?$AA@ 10036a00     LIBCMT:_fpexcept_.obj
 0002:00004a08       ??_C@_04HPJJNFIM@cosh?$AA@ 10036a08     LIBCMT:_fpexcept_.obj
 0002:00004a10       ??_C@_04COOMCNPB@sinh?$AA@ 10036a10     LIBCMT:_fpexcept_.obj
 0002:00004a18       ??_C@_05HGHHAHAP@log10?$AA@ 10036a18     LIBCMT:_fpexcept_.obj
 0002:00004a20       ??_C@_03MGHMBJCF@log?$AA@  10036a20     LIBCMT:_fpexcept_.obj
 0002:00004a24       ??_C@_03JGHBODFD@pow?$AA@  10036a24     LIBCMT:_fpexcept_.obj
 0002:00004a28       ??_C@_03KHJOGHMM@exp?$AA@  10036a28     LIBCMT:_fpexcept_.obj
 0002:00004a2c       ??_C@_1BA@BALFACEM@?$AAC?$AAO?$AAN?$AAO?$AAU?$AAT?$AA$?$AA?$AA@ 10036a2c     LIBCMT:initcon.obj
 0002:00004a40       __load_config_used         10036a40     LIBCMT:loadcfg.obj
 0002:00004a88       ??_R4ModifyHook@@6B@       10036a88     ModifyHook.obj
 0002:00004a9c       ??_R3ModifyHook@@8         10036a9c     ModifyHook.obj
 0002:00004aac       ??_R2ModifyHook@@8         10036aac     ModifyHook.obj
 0002:00004ab8       ??_R1A@?0A@EA@ModifyHook@@8 10036ab8     ModifyHook.obj
 0002:00004ad4       ??_R1A@?0A@EA@SingleHook@@8 10036ad4     ModifyHook.obj
 0002:00004af0       ??_R3SingleHook@@8         10036af0     ModifyHook.obj
 0002:00004b00       ??_R2SingleHook@@8         10036b00     ModifyHook.obj
 0002:00004b08       ??_R4IDDraw@@6B@           10036b08     iddraw.obj
 0002:00004b1c       ??_R3IDDraw@@8             10036b1c     iddraw.obj
 0002:00004b2c       ??_R2IDDraw@@8             10036b2c     iddraw.obj
 0002:00004b3c       ??_R1A@?0A@EA@IDDraw@@8    10036b3c     iddraw.obj
 0002:00004b58       ??_R1A@?0A@EA@IDirectDraw@@8 10036b58     iddraw.obj
 0002:00004b74       ??_R3IDirectDraw@@8        10036b74     iddraw.obj
 0002:00004b84       ??_R2IDirectDraw@@8        10036b84     iddraw.obj
 0002:00004b90       ??_R1A@?0A@EA@IUnknown@@8  10036b90     iddraw.obj
 0002:00004bac       ??_R3IUnknown@@8           10036bac     iddraw.obj
 0002:00004bbc       ??_R2IUnknown@@8           10036bbc     iddraw.obj
 0002:00004bc4       ??_R4IDDrawSurface@@6B@    10036bc4     iddrawsurface.obj
 0002:00004bd8       ??_R3IDDrawSurface@@8      10036bd8     iddrawsurface.obj
 0002:00004be8       ??_R2IDDrawSurface@@8      10036be8     iddrawsurface.obj
 0002:00004bf8       ??_R1A@?0A@EA@IDDrawSurface@@8 10036bf8     iddrawsurface.obj
 0002:00004c14       ??_R1A@?0A@EA@IDirectDrawSurface@@8 10036c14     iddrawsurface.obj
 0002:00004c30       ??_R3IDirectDrawSurface@@8 10036c30     iddrawsurface.obj
 0002:00004c40       ??_R2IDirectDrawSurface@@8 10036c40     iddrawsurface.obj
 0002:00004c4c       ??_R4bad_alloc@std@@6B@    10036c4c     dddta.obj
 0002:00004c60       ??_R3bad_alloc@std@@8      10036c60     dddta.obj
 0002:00004c70       ??_R2bad_alloc@std@@8      10036c70     dddta.obj
 0002:00004c7c       ??_R1A@?0A@EA@bad_alloc@std@@8 10036c7c     dddta.obj
 0002:00004c98       ??_R1A@?0A@EA@exception@std@@8 10036c98     dddta.obj
 0002:00004cb4       ??_R3exception@std@@8      10036cb4     dddta.obj
 0002:00004cc4       ??_R2exception@std@@8      10036cc4     dddta.obj
 0002:00004ccc       ??_R4CMinimapHandler@@6B@  10036ccc     MinimapHandler.obj
 0002:00004ce0       ??_R3CMinimapHandler@@8    10036ce0     MinimapHandler.obj
 0002:00004cf0       ??_R2CMinimapHandler@@8    10036cf0     MinimapHandler.obj
 0002:00004cf8       ??_R1A@?0A@EA@CMinimapHandler@@8 10036cf8     MinimapHandler.obj
 0002:00004d14       ??_R4GraphicElement@@6B@   10036d14     whiteboard.obj
 0002:00004d28       ??_R3GraphicElement@@8     10036d28     whiteboard.obj
 0002:00004d38       ??_R2GraphicElement@@8     10036d38     whiteboard.obj
 0002:00004d40       ??_R1A@?0A@EA@GraphicElement@@8 10036d40     whiteboard.obj
 0002:00004d5c       ??_R4GraphicMoveText@@6B@  10036d5c     whiteboard.obj
 0002:00004d70       ??_R3GraphicMoveText@@8    10036d70     whiteboard.obj
 0002:00004d80       ??_R2GraphicMoveText@@8    10036d80     whiteboard.obj
 0002:00004d8c       ??_R1A@?0A@EA@GraphicMoveText@@8 10036d8c     whiteboard.obj
 0002:00004da8       ??_R4GraphicText@@6B@      10036da8     whiteboard.obj
 0002:00004dbc       ??_R3GraphicText@@8        10036dbc     whiteboard.obj
 0002:00004dcc       ??_R2GraphicText@@8        10036dcc     whiteboard.obj
 0002:00004dd8       ??_R1A@?0A@EA@GraphicText@@8 10036dd8     whiteboard.obj
 0002:00004df4       ??_R4GraphicTextEdited@@6B@ 10036df4     whiteboard.obj
 0002:00004e08       ??_R3GraphicTextEdited@@8  10036e08     whiteboard.obj
 0002:00004e18       ??_R2GraphicTextEdited@@8  10036e18     whiteboard.obj
 0002:00004e24       ??_R1A@?0A@EA@GraphicTextEdited@@8 10036e24     whiteboard.obj
 0002:00004e40       ??_R4DeleteGraphic@@6B@    10036e40     whiteboard.obj
 0002:00004e54       ??_R3DeleteGraphic@@8      10036e54     whiteboard.obj
 0002:00004e64       ??_R2DeleteGraphic@@8      10036e64     whiteboard.obj
 0002:00004e70       ??_R1A@?0A@EA@DeleteGraphic@@8 10036e70     whiteboard.obj
 0002:00004e8c       ??_R4GraphicLine@@6B@      10036e8c     whiteboard.obj
 0002:00004ea0       ??_R3GraphicLine@@8        10036ea0     whiteboard.obj
 0002:00004eb0       ??_R2GraphicLine@@8        10036eb0     whiteboard.obj
 0002:00004ebc       ??_R1A@?0A@EA@GraphicLine@@8 10036ebc     whiteboard.obj
 0002:00004ed8       ??_R4SingleHook@@6B@       10036ed8     Hook.obj
 0002:00004eec       ??_R4InlineSingleHook@@6B@ 10036eec     InlineHook.obj
 0002:00004f00       ??_R3InlineSingleHook@@8   10036f00     InlineHook.obj
 0002:00004f10       ??_R2InlineSingleHook@@8   10036f10     InlineHook.obj
 0002:00004f1c       ??_R1A@?0A@EA@InlineSingleHook@@8 10036f1c     InlineHook.obj
 0002:00004f38       ??_R4CElementHandler@@6B@  10036f38     ElementHandler.obj
 0002:00004f4c       ??_R3CElementHandler@@8    10036f4c     ElementHandler.obj
 0002:00004f5c       ??_R2CElementHandler@@8    10036f5c     ElementHandler.obj
 0002:00004f64       ??_R1A@?0A@EA@CElementHandler@@8 10036f64     ElementHandler.obj
 0002:00004f80       ??_R4logic_error@std@@6B@  10036f80     xthrow.obj
 0002:00004f94       ??_R3logic_error@std@@8    10036f94     xthrow.obj
 0002:00004fa4       ??_R2logic_error@std@@8    10036fa4     xthrow.obj
 0002:00004fb0       ??_R1A@?0A@EA@logic_error@std@@8 10036fb0     xthrow.obj
 0002:00004fcc       ??_R4length_error@std@@6B@ 10036fcc     xthrow.obj
 0002:00004fe0       ??_R3length_error@std@@8   10036fe0     xthrow.obj
 0002:00004ff0       ??_R2length_error@std@@8   10036ff0     xthrow.obj
 0002:00005000       ??_R1A@?0A@EA@length_error@std@@8 10037000     xthrow.obj
 0002:0000501c       ??_R4type_info@@6B@        1003701c     LIBCMT:typinfo.obj
 0002:00005030       ??_R3type_info@@8          10037030     LIBCMT:typinfo.obj
 0002:00005040       ??_R2type_info@@8          10037040     LIBCMT:typinfo.obj
 0002:00005048       ??_R1A@?0A@EA@type_info@@8 10037048     LIBCMT:typinfo.obj
 0002:00005064       ??_R4exception@std@@6B@    10037064     LIBCMT:stdexcpt.obj
 0002:00005078       ??_R4bad_exception@std@@6B@ 10037078     LIBCMT:frame.obj
 0002:0000508c       ??_R3bad_exception@std@@8  1003708c     LIBCMT:frame.obj
 0002:0000509c       ??_R2bad_exception@std@@8  1003709c     LIBCMT:frame.obj
 0002:000050a8       ??_R1A@?0A@EA@bad_exception@std@@8 100370a8     LIBCMT:frame.obj
 0002:000050d0       ___safe_se_handler_table   100370d0     <linker-defined>
 0002:000051c0       ___rtc_iaa                 100371c0     LIBCMT:_initsect_.obj
 0002:000051c8       ___rtc_izz                 100371c8     LIBCMT:_initsect_.obj
 0002:000051cc       ___rtc_taa                 100371cc     LIBCMT:_initsect_.obj
 0002:000051d4       ___rtc_tzz                 100371d4     LIBCMT:_initsect_.obj
 0002:000056c8       __TI2?AVbad_alloc@std@@    100376c8     dddta.obj
 0002:000056d8       __CTA2?AVbad_alloc@std@@   100376d8     dddta.obj
 0002:000056e4       __CT??_R0?AVbad_alloc@std@@@8??0bad_alloc@std@@QAE@ABV01@@Z12 100376e4     dddta.obj
 0002:00005700       __CT??_R0?AVexception@std@@@8??0exception@std@@QAE@ABV01@@Z12 10037700     dddta.obj
 0002:000058ac       __TI1?AVCAtlException@ATL@@ 100378ac     TAConfig.obj
 0002:000058bc       __CTA1?AVCAtlException@ATL@@ 100378bc     TAConfig.obj
 0002:000058c4       __CT??_R0?AVCAtlException@ATL@@@84 100378c4     TAConfig.obj
 0002:0000633c       __CT??_R0?AVlogic_error@std@@@8??0logic_error@std@@QAE@ABV01@@Z12 1003833c     xthrow.obj
 0002:00006358       __TI3?AVlength_error@std@@ 10038358     xthrow.obj
 0002:00006368       __CTA3?AVlength_error@std@@ 10038368     xthrow.obj
 0002:00006378       __CT??_R0?AVlength_error@std@@@8??0length_error@std@@QAE@ABV01@@Z12 10038378     xthrow.obj
 0002:0000655c       __TI2?AVbad_exception@std@@ 1003855c     LIBCMT:frame.obj
 0002:0000656c       __CTA2?AVbad_exception@std@@ 1003856c     LIBCMT:frame.obj
 0002:00006578       __CT??_R0?AVbad_exception@std@@@8??0bad_exception@std@@QAE@ABV01@@Z12 10038578     LIBCMT:frame.obj
 0002:000068ec       __IMPORT_DESCRIPTOR_IMM32  100388ec     imm32:IMM32.dll
 0002:00006900       __IMPORT_DESCRIPTOR_USER32 10038900     user32:USER32.dll
 0002:00006914       __IMPORT_DESCRIPTOR_KERNEL32 10038914     kernel32:KERNEL32.dll
 0002:00006928       __IMPORT_DESCRIPTOR_GDI32  10038928     gdi32:GDI32.dll
 0002:0000693c       __IMPORT_DESCRIPTOR_ADVAPI32 1003893c     advapi32:ADVAPI32.dll
 0002:00006950       __NULL_IMPORT_DESCRIPTOR   10038950     imm32:IMM32.dll
 0003:00000000       ?Log@@3_NA                 1003a000     ddraw.obj
 0003:00000008       ?ThinFont@@3PADA           1003a008     font.obj
 0003:00000808       ?FontOffsetUC@@3PAY01HA    1003a808     font.obj
 0003:000009d8       ?FontOffsetLC@@3PAY01HA    1003a9d8     font.obj
 0003:00000aa8       ?SmallFontOffsetUC@@3PAY01HA 1003aaa8     font.obj
 0003:00000c78       ?SmallFontOffsetLC@@3PAY01HA 1003ac78     font.obj
 0003:00000d48       ?FindMouseUnit@@3P6GGXZA   1003ad48     HardCodeFunctions.obj
 0003:00000d4c       ?TAMapClick@@3P6GXPAX@ZA   1003ad4c     HardCodeFunctions.obj
 0003:00000d50       ?TestBuildSpot@@3P6GXXZA   1003ad50     HardCodeFunctions.obj
 0003:00000d54       ?SendText@@3P6GHPADH@ZA    1003ad54     HardCodeFunctions.obj
 0003:00000d58       ?ShowText@@3P6GXPAUPlayerStruct@@PADHH@ZA 1003ad58     HardCodeFunctions.obj
 0003:00000d5c       ?TADrawRect@@3P6GXPADPAUtagRECT@@H@ZA 1003ad5c     HardCodeFunctions.obj
 0003:00000d60       ?TADrawLine@@3P6AXPADHHHHH@ZA 1003ad60     HardCodeFunctions.obj
 0003:00000d64       ?GetContext@@3P6GHPAD@ZA   1003ad64     HardCodeFunctions.obj
 0003:00000d68       ?TADrawCircle@@3P6GXPADPAXPAUposstruct@@HH0H@ZA 1003ad68     HardCodeFunctions.obj
 0003:00000d6c       ?ApplySelectUnitMenu@@3P6GXXZA 1003ad6c     HardCodeFunctions.obj
 0003:00000d70       ?free_SafeWay@@3P6AXPAX@ZA 1003ad70     HardCodeFunctions.obj
 0003:00000d74       ?malloc_SafeWay@@3P6AXH@ZA 1003ad74     HardCodeFunctions.obj
 0003:00000d78       ?UpdateLosState@@3P6GXH@ZA 1003ad78     HardCodeFunctions.obj
 0003:00000d7c       ?LoadTARegConfig@@3P6GHXZA 1003ad7c     HardCodeFunctions.obj
 0003:00000d80       ?ViewCommandProc@@3P6GHPAD@ZA 1003ad80     HardCodeFunctions.obj
 0003:00000d84       ?TestGridSpot@@3P6GXPAUUnitStruct@@HHPAUPlayerStruct@@@ZA 1003ad84     HardCodeFunctions.obj
 0003:00000d88       ?TAmainStruct_PtrPtr@@3PAPAUTAdynmemStruct@@A 1003ad88     HardCodeFunctions.obj
 0003:00000d8c       ?Sfx_mallocBufSizeAddr@@3KA 1003ad8c     HardCodeFunctions.obj
 0003:00000d90       ?GetIniFileInt@@3P6GHPBDH@ZA 1003ad90     HardCodeFunctions.obj
 0003:00000d94       ?AISearchMapEntriesLimit@@3PAKA 1003ad94     HardCodeFunctions.obj
 0003:00000d98       ?AddrAboutCircleSelect@@3PAEA 1003ad98     HardCodeFunctions.obj
 0003:00000d9c       ?ApplySelectUnitGUI@@3P6GXXZA 1003ad9c     HardCodeFunctions.obj
 0003:00000da0       ?TAIniStr@@3PBDB           1003ada0     HardCodeFunctions.obj
 0003:00000da4       ?CompanyName_CCSTR@@3PBDB  1003ada4     HardCodeFunctions.obj
 0003:00000da8       ?GameName_CCSTR@@3PBDB     1003ada8     HardCodeFunctions.obj
 0003:00000dac       ?EnterOption_Address@@3IA  1003adac     HardCodeFunctions.obj
 0003:00000db0       ?PressInOption_Address@@3IA 1003adb0     HardCodeFunctions.obj
 0003:00000db4       ?AddtionInitAddr@@3IA      1003adb4     HardCodeFunctions.obj
 0003:00000db8       ?Blt_BottomState0_TextRtn@@3IA 1003adb8     HardCodeFunctions.obj
 0003:00000dbc       ?Blt_BottomState0_TextAddr@@3IA 1003adbc     HardCodeFunctions.obj
 0003:00000dc0       ?Blt_BottomState1_TextRtn@@3IA 1003adc0     HardCodeFunctions.obj
 0003:00000dc4       ?Blt_BottomState1_TextAddr@@3IA 1003adc4     HardCodeFunctions.obj
 0003:00000dc8       ?GetTextExtent_AssignCharLenAddr@@3IA 1003adc8     HardCodeFunctions.obj
 0003:00000dcc       ?GetStrExtentAddr@@3IA     1003adcc     HardCodeFunctions.obj
 0003:00000dd0       ?PopadStateAddr@@3IA       1003add0     HardCodeFunctions.obj
 0003:00000dd4       ??_R0?AVModifyHook@@@8     1003add4     ModifyHook.obj
 0003:00000df0       ??_R0?AVSingleHook@@@8     1003adf0     ModifyHook.obj
 0003:00000e0c       ?fopen_HPI@@3P6GPAU_OPENTAFILE@@PAD0@ZA 1003ae0c     HPIfunc.obj
 0003:00000e10       ?read_HPI@@3P6GIPAU_OPENTAFILE@@PAXH@ZA 1003ae10     HPIfunc.obj
 0003:00000e14       ?fclose_HPI@@3P6GHPAU_OPENTAFILE@@@ZA 1003ae14     HPIfunc.obj
 0003:00000e18       ?filelength_HPI@@3P6GIPAD@ZA 1003ae18     HPIfunc.obj
 0003:00000e1c       ?filelen_HPI@@3P6GIPAU_OPENTAFILE@@@ZA 1003ae1c     HPIfunc.obj
 0003:00000e20       ?readfile_HPI@@3P6GPADPADPAI@ZA 1003ae20     HPIfunc.obj
 0003:00000e24       ?InitTAHPIAry@@3P6GXXZA    1003ae24     HPIfunc.obj
 0003:00000e28       ??_R0?AVIDDraw@@@8         1003ae28     iddraw.obj
 0003:00000e40       ??_R0?AUIDirectDraw@@@8    1003ae40     iddraw.obj
 0003:00000e5c       ??_R0?AUIUnknown@@@8       1003ae5c     iddraw.obj
 0003:00000e74       ??_R0?AVIDDrawSurface@@@8  1003ae74     iddrawsurface.obj
 0003:00000e90       ??_R0?AUIDirectDrawSurface@@@8 1003ae90     iddrawsurface.obj
 0003:00000eb8       ?Receive_Weapon_bits@@3PAEA 1003aeb8     MultiGameWeaponID.obj
 0003:00000ec0       ?AreaOfDamage_bits@@3PAEA  1003aec0     MultiGameWeaponID.obj
 0003:00000f2c       ?Receive_AreaOfDamage_bits@@3PAEA 1003af2c     MultiGameWeaponID.obj
 0003:00000f38       ?fire_callback0_bits@@3PAEA 1003af38     MultiGameWeaponID.obj
 0003:00000fd4       ?Set_Packetlen_bits@@3PAEA 1003afd4     MultiGameWeaponID.obj
 0003:00000ff0       ?fire_callback1_bits@@3PAEA 1003aff0     MultiGameWeaponID.obj
 0003:0000109c       ?WeaponPacketAddressAry@@3PAIA 1003b09c     MultiGameWeaponID.obj
 0003:000010c4       ?FeaturePckt4_bits@@3PAEA  1003b0c4     MultiGameWeaponID.obj
 0003:000010c8       ?fire_callback2_bits@@3PAEA 1003b0c8     MultiGameWeaponID.obj
 0003:00001168       ?fire_callback3_bits@@3PAEA 1003b168     MultiGameWeaponID.obj
 0003:00001210       ?Send_FireWeapon_bits@@3PAEA 1003b210     MultiGameWeaponID.obj
 0003:000012f0       ?Send_MapWeapon_bits@@3PAEA 1003b2f0     MultiGameWeaponID.obj
 0003:000013e0       ?WeaponPacketLenAry@@3PAKA 1003b3e0     MultiGameWeaponID.obj
 0003:00001408       ?WeaponPacketBitsAry@@3PAPAEA 1003b408     MultiGameWeaponID.obj
 0003:00001430       ?FeaturePckt0_bits@@3PAEA  1003b430     MultiGameWeaponID.obj
 0003:00001438       ?FeaturePckt1_bits@@3PAEA  1003b438     MultiGameWeaponID.obj
 0003:00001448       ?FeaturePckt2_bits@@3PAEA  1003b448     MultiGameWeaponID.obj
 0003:00001450       ?FeaturePckt3_bits@@3PAEA  1003b450     MultiGameWeaponID.obj
 0003:00001458       ?FeaturePckt5_bits@@3PAEA  1003b458     MultiGameWeaponID.obj
 0003:00001464       ?FeaturePckt6_bits@@3PAEA  1003b464     MultiGameWeaponID.obj
 0003:0000146c       ?FeaturePacket_mdf_bits@@3PAPAEA 1003b46c     MultiGameWeaponID.obj
 0003:0000148c       ?FeaturePacket_mdf_bits_len@@3PAKA 1003b48c     MultiGameWeaponID.obj
 0003:000014ac       ?FeaturePacket_mdf_maxlen@@3PAKA 1003b4ac     MultiGameWeaponID.obj
 0003:000014cc       ?FeaturePacket_mdf_off@@3PAKA 1003b4cc     MultiGameWeaponID.obj
 0003:000014ec       ?FeaturePacke_mdf_addr@@3PAKA 1003b4ec     MultiGameWeaponID.obj
 0003:0000150c       ?FeaturePacketAddressAry@@3PAKA 1003b50c     MultiGameWeaponID.obj
 0003:0000151c       ?PushFeaturePacketSize_bits@@3PAEA 1003b51c     MultiGameWeaponID.obj
 0003:00001520       ?Length@@3PAHA             1003b520     rings.obj
 0003:00001540       ?Rings@@3PAY0BE@UtagPOINTS@@A 1003b540     rings.obj
 0003:00001770       ??_R0?AVbad_alloc@std@@@8  1003b770     dddta.obj
 0003:0000178c       ??_R0?AVexception@std@@@8  1003b78c     dddta.obj
 0003:000017ac       ??_R0?AVCMinimapHandler@@@8 1003b7ac     MinimapHandler.obj
 0003:000017cc       ??_R0?AVCAtlException@ATL@@@8 1003b7cc     TAConfig.obj
 0003:000017ec       ?NumAdd@@3DA               1003b7ec     tahook.obj
 0003:000017ed       ?NumSub@@3DA               1003b7ed     tahook.obj
 0003:000017f0       ?WeaponRelatedPtr@@3PAPAPAXA 1003b7f0     LimitCrack.obj
 0003:00001828       ?WeaponAryLen@@3PAPAKA     1003b828     LimitCrack.obj
 0003:00001834       ?IDlimitAddrAry@@3PAKA     1003b834     LimitCrack.obj
 0003:0000186c       ?IDlimit0_bits@@3PAEA      1003b86c     LimitCrack.obj
 0003:00001874       ?IDlimit1_bits@@3PAEA      1003b874     LimitCrack.obj
 0003:0000187c       ?IDlimit3_bits@@3PAEA      1003b87c     LimitCrack.obj
 0003:00001884       ?IDlimit4_bits@@3PAEA      1003b884     LimitCrack.obj
 0003:0000188c       ?IDlimit5_bits@@3PAEA      1003b88c     LimitCrack.obj
 0003:0000189c       ?IDlimit6_bits@@3PAEA      1003b89c     LimitCrack.obj
 0003:000018a8       ?IDlimit7_bits@@3PAEA      1003b8a8     LimitCrack.obj
 0003:000018b0       ?IDlimit8_bits@@3PAEA      1003b8b0     LimitCrack.obj
 0003:000018b8       ?IDlimit11_bits@@3PAEA     1003b8b8     LimitCrack.obj
 0003:000018c0       ?IDlimit12_bits@@3PAEA     1003b8c0     LimitCrack.obj
 0003:000018cc       ?IDlimit13_bits@@3PAEA     1003b8cc     LimitCrack.obj
 0003:000018d8       ?IDlimitBitsAry@@3PAPAEA   1003b8d8     LimitCrack.obj
 0003:00001910       ?IDlimitLenAry@@3PAKA      1003b910     LimitCrack.obj
 0003:00001948       ?SfxVectorLimitAry@@3PAIA  1003b948     LimitCrack.obj
 0003:00001990       ??_R0?AVGraphicElement@@@8 1003b990     whiteboard.obj
 0003:000019b0       ??_R0?AVGraphicMoveText@@@8 1003b9b0     whiteboard.obj
 0003:000019d0       ??_R0?AVGraphicText@@@8    1003b9d0     whiteboard.obj
 0003:000019ec       ??_R0?AVGraphicTextEdited@@@8 1003b9ec     whiteboard.obj
 0003:00001a0c       ??_R0?AVDeleteGraphic@@@8  1003ba0c     whiteboard.obj
 0003:00001a28       ??_R0?AVGraphicLine@@@8    1003ba28     whiteboard.obj
 0003:00001a48       ?TAPalette@@3PAUtagPALETTEENTRY@@A 1003ba48     PCX.obj
 0003:00002648       ?Global_PX86CurrentThreadStackBufferFixRtnAddr@@3P6GPAUtagInlineX86StackBuffer@@PAPAU1@@ZA 1003c648     InlineHook.obj
 0003:0000264c       ?Global_PX86CurrentThreadStackBuffer@@3P6GPAUtagInlineX86StackBuffer@@PAPAU1@@ZA 1003c64c     InlineHook.obj
 0003:00002650       ??_R0?AVInlineSingleHook@@@8 1003c650     InlineHook.obj
 0003:00002670       ??_R0?AVCElementHandler@@@8 1003c670     ElementHandler.obj
 0003:00002690       ??_R0?AVlogic_error@std@@@8 1003c690     xthrow.obj
 0003:000026b0       ??_R0?AVlength_error@std@@@8 1003c6b0     xthrow.obj
 0003:000026d0       ___security_cookie         1003c6d0     LIBCMT:gs_cookie.obj
 0003:000026d4       ___security_cookie_complement 1003c6d4     LIBCMT:gs_cookie.obj
 0003:000026e0       __fltused                  1003c6e0     LIBCMT:_fpinit_.obj
 0003:000026e4       __ldused                   1003c6e4     LIBCMT:_fpinit_.obj
 0003:000026f0       ??_R0?AVtype_info@@@8      1003c6f0     LIBCMT:typinfo.obj
 0003:00002728       ??_R0?AVbad_exception@std@@@8 1003c728     LIBCMT:frame.obj
 0003:00002748       ___flsindex                1003c748     LIBCMT:tidtable.obj
 0003:0000274c       ___getvalueindex           1003c74c     LIBCMT:tidtable.obj
 0003:00002750       ?_RTC_ErrorLevels@@3PAHA   1003c750     LIBCMT:_error_.obj
 0003:00002770       __cfltcvt_tab              1003c770     LIBCMT:cmiscdat.obj
 0003:00002798       ___nullstring              1003c798     LIBCMT:output.obj
 0003:0000279c       ___wnullstring             1003c79c     LIBCMT:output.obj
 0003:00002910       ___initialmbcinfo          1003c910     LIBCMT:mbctype.obj
 0003:00002b30       __mbctype                  1003cb30     LIBCMT:mbctype.obj
 0003:00002c38       __mbcasemap                1003cc38     LIBCMT:mbctype.obj
 0003:00002d38       ___ptmbcinfo               1003cd38     LIBCMT:mbctype.obj
 0003:00002e30       ___globallocalestatus      1003ce30     LIBCMT:glstatus.obj
 0003:00002e34       ___clocalestr              1003ce34     LIBCMT:nlsdata2.obj
 0003:00002e38       ___lc_time_c               1003ce38     LIBCMT:nlsdata2.obj
 0003:00002fa0       ___initiallocinfo          1003cfa0     LIBCMT:nlsdata2.obj
 0003:00003078       ___ptlocinfo               1003d078     LIBCMT:nlsdata2.obj
 0003:0000307c       ___initiallocalestructinfo 1003d07c     LIBCMT:nlsdata2.obj
 0003:00003088       __timezone                 1003d088     LIBCMT:timeset.obj
 0003:0000308c       __daylight                 1003d08c     LIBCMT:timeset.obj
 0003:00003090       __dstbias                  1003d090     LIBCMT:timeset.obj
 0003:00003118       __tzname                   1003d118     LIBCMT:timeset.obj
 0003:00003150       ___badioinfo               1003d150     LIBCMT:ioinit.obj
 0003:000032b0       ___abort_behavior          1003d2b0     LIBCMT:abort.obj
 0003:000032c0       __NLG_Destination          1003d2c0     LIBCMT:exsup.obj
 0003:000032d0       __iob                      1003d2d0     LIBCMT:_file.obj
 0003:00003550       ___lconv_static_decimal    1003d550     LIBCMT:lconv.obj
 0003:00003554       ___lconv_static_W_decimal  1003d554     LIBCMT:lconv.obj
 0003:00003558       ___lconv_c                 1003d558     LIBCMT:lconv.obj
 0003:000035a8       ___lconv                   1003d5a8     LIBCMT:lconv.obj
 0003:000035ac       __pctype                   1003d5ac     LIBCMT:ctype.obj
 0003:000035b0       __pwctype                  1003d5b0     LIBCMT:ctype.obj
 0003:000035b4       __lpdays                   1003d5b4     LIBCMT:days.obj
 0003:000035e8       __days                     1003d5e8     LIBCMT:days.obj
 0003:00003620       ___mb_cur_max              1003d620     LIBCMT:nlsdata1.obj
 0003:00003624       ___decimal_point           1003d624     LIBCMT:nlsdata1.obj
 0003:00003628       ___decimal_point_length    1003d628     LIBCMT:nlsdata1.obj
 0003:00003748       __matherr_flag             1003d748     LIBCMT:_matherr_.obj
 0003:00003768       __pow10pos                 1003d768     LIBCMT:_constpow_.obj
 0003:000038c8       __pow10neg                 1003d8c8     LIBCMT:_constpow_.obj
 0003:00003a24       __confh                    1003da24     LIBCMT:initcon.obj
 0003:00003a30       __d_inf                    1003da30     LIBCMT:_util_.obj
 0003:00003a38       __d_ind                    1003da38     LIBCMT:_util_.obj
 0003:00003a40       __d_max                    1003da40     LIBCMT:_util_.obj
 0003:00003a48       __d_min                    1003da48     LIBCMT:_util_.obj
 0003:00003a50       __d_mzero                  1003da50     LIBCMT:_util_.obj
 0003:00003a60       ?hMemMap@@3PAXA            1003da60     ddraw.obj
 0003:00003a64       ?pMapView@@3PAXA           1003da64     ddraw.obj
 0003:00003a68       ?DataShare@@3PAUDataShare_@@A 1003da68     ddraw.obj
 0003:00003a6c       ?LocalpMapView@@3PAXA      1003da6c     ddraw.obj
 0003:00003a70       ?MyConfig@@3PAVTADRConfig@@A 1003da70     ddraw.obj
 0003:00003a74       ?TAHookpMapView@@3PAXA     1003da74     ddraw.obj
 0003:00003a78       ?TAHookhMemMap@@3PAXA      1003da78     ddraw.obj
 0003:00003a7c       ?LocalhMemMap@@3PAXA       1003da7c     ddraw.obj
 0003:00003a80       ?TAHPI@@3PAV_TAHPI@@A      1003da80     ddraw.obj
 0003:00003a84       ?AddtionInitHook@@3PAVInlineSingleHook@@A 1003da84     ddraw.obj
 0003:00003a88       ?SystemDDraw@@3PADA        1003da88     ddraw.obj
 0003:00003b8c       ?LocalShare@@3PAULocalShare_@@A 1003db8c     ddraw.obj
 0003:00003b90       ?HInstance@@3PAUHINSTANCE__@@A 1003db90     ddraw.obj
 0003:00003b94       ?Windowed@@3_NA            1003db94     ddraw.obj
 0003:00003b98       ?NowCrackLimit@@3PAVLimitCrack@@A 1003db98     ddraw.obj
 0003:00003b9c       ?SDDraw@@3PAUHINSTANCE__@@A 1003db9c     ddraw.obj
 0003:00003ba0       ?HookInCircleSelect@@3PAVInlineSingleHook@@A 1003dba0     ExternQuickKey.obj
 0003:00003ba4       ?Draw@@3HA                 1003dba4     iddrawsurface.obj
 0003:00003ba8       ?StartedInRect@@3_NA       1003dba8     iddrawsurface.obj
 0003:00003bac       ?MouseY@@3FA               1003dbac     iddrawsurface.obj
 0003:00003bb0       ?MouseX@@3FA               1003dbb0     iddrawsurface.obj
 0003:00003bb4       ?gTAdynmem@@3PAUTAdynmemStruct@@A 1003dbb4     dddta.obj
 0003:00003bb8       ?gDDDSharedMem@@3PAUSharedMem@@A 1003dbb8     dddta.obj
 0003:00003bbc       ?gSmoke@@3PAUParticleBase@@A 1003dbbc     dddta.obj
 0003:00003bc0       ?offset@@3HA               1003dbc0     dddta.obj
 0003:00003bc4       ?display@@3_NA             1003dbc4     dddta.obj
 0003:00003bc8       ?TAdynmem@@3PAUTAdynmemStruct@@A 1003dbc8     changequeue.obj
 0003:00003bcc       ?GWinProchWnd@@3PAUHWND__@@A 1003dbcc     changequeue.obj
 0003:00003bd0       ?pressed@@3_NA             1003dbd0     changequeue.obj
 0003:00003bd4       ?X@@3HA                    1003dbd4     cinomce.obj
 0003:00003bd8       ?Y@@3HA                    1003dbd8     cinomce.obj
 0003:00003be0       ?TAHook@@3PAVCTAHook@@A    1003dbe0     tahook.obj
 0003:00003be8       ?NewMem@@3PADA             1003dbe8     unitrotate.obj
 0003:00003c04       ___fastflag                1003dc04     LIBCMT:_fpinit_.obj
 0003:00003c0c       __aenvptr                  1003dc0c     LIBCMT:dllcrt0.obj
 0003:00003c10       __wenvptr                  1003dc10     LIBCMT:dllcrt0.obj
 0003:00003c14       ___error_mode              1003dc14     LIBCMT:dllcrt0.obj
 0003:00003c18       ___app_type                1003dc18     LIBCMT:dllcrt0.obj
 0003:00003c1c       ?_pnhHeap@@3P6AHI@ZA       1003dc1c     LIBCMT:handler.obj
 0003:00003c20       _gpFlsAlloc                1003dc20     LIBCMT:tidtable.obj
 0003:00003c24       _gpFlsGetValue             1003dc24     LIBCMT:tidtable.obj
 0003:00003c28       _gpFlsSetValue             1003dc28     LIBCMT:tidtable.obj
 0003:00003c2c       _gpFlsFree                 1003dc2c     LIBCMT:tidtable.obj
 0003:00003c30       ?__pInconsistency@@3P6AXXZA 1003dc30     LIBCMT:hooks.obj
 0003:00003f64       ?wsprintffp@@3P6AHPADPBDZZA 1003df64     LIBCMT:_error_.obj
 0003:00003f68       ___pInvalidArgHandler      1003df68     LIBCMT:invarg.obj
 0003:00003f78       ___mbulinfo                1003df78     LIBCMT:mbctype.obj
 0003:00003f84       ___mbcodepage              1003df84     LIBCMT:mbctype.obj
 0003:00003f88       ___ismbcodepage            1003df88     LIBCMT:mbctype.obj
 0003:00003f8c       ___mblcid                  1003df8c     LIBCMT:mbctype.obj
 0003:00003f90       __maxwait                  1003df90     LIBCMT:crtheap.obj
 0003:00004050       ___locale_changed          1003e050     LIBCMT:setlocal.obj
 0003:00004054       __crtheap                  1003e054     LIBCMT:heapinit.obj
 0003:00004058       __umaskval                 1003e058     LIBCMT:crt0dat.obj
 0003:0000405c       ___argc                    1003e05c     LIBCMT:crt0dat.obj
 0003:00004060       ___argv                    1003e060     LIBCMT:crt0dat.obj
 0003:00004064       ___wargv                   1003e064     LIBCMT:crt0dat.obj
 0003:00004068       __environ                  1003e068     LIBCMT:crt0dat.obj
 0003:0000406c       ___initenv                 1003e06c     LIBCMT:crt0dat.obj
 0003:00004070       __wenviron                 1003e070     LIBCMT:crt0dat.obj
 0003:00004074       ___winitenv                1003e074     LIBCMT:crt0dat.obj
 0003:00004078       __pgmptr                   1003e078     LIBCMT:crt0dat.obj
 0003:0000407c       __wpgmptr                  1003e07c     LIBCMT:crt0dat.obj
 0003:00004080       __exitflag                 1003e080     LIBCMT:crt0dat.obj
 0003:00004084       __C_Termination_Done       1003e084     LIBCMT:crt0dat.obj
 0003:00004088       __C_Exit_Done              1003e088     LIBCMT:crt0dat.obj
 0003:000046b8       __newmode                  1003e6b8     LIBCMT:_newmode.obj
 0003:00004920       __outputformat             1003e920     LIBCMT:outputformat.obj
 0003:00004924       __cflush                   1003e924     LIBCMT:_file.obj
 0003:00004940       ?pArgList@UnDecorator@@0PAVReplicator@@A 1003e940     LIBCMT:undname.obj
 0003:00004944       ?pZNameList@UnDecorator@@0PAVReplicator@@A 1003e944     LIBCMT:undname.obj
 0003:00004948       ?pTemplateArgList@UnDecorator@@0PAVReplicator@@A 1003e948     LIBCMT:undname.obj
 0003:0000494c       ?gName@UnDecorator@@0PBDB  1003e94c     LIBCMT:undname.obj
 0003:00004950       ?name@UnDecorator@@0PBDB   1003e950     LIBCMT:undname.obj
 0003:00004954       ?outputString@UnDecorator@@0PADA 1003e954     LIBCMT:undname.obj
 0003:00004958       ?maxStringLength@UnDecorator@@0HA 1003e958     LIBCMT:undname.obj
 0003:0000495c       ?disableFlags@UnDecorator@@0KA 1003e95c     LIBCMT:undname.obj
 0003:00004960       ?m_pGetParameter@UnDecorator@@0P6APADJ@ZA 1003e960     LIBCMT:undname.obj
 0003:00004964       ?fExplicitTemplateParams@UnDecorator@@0_NA 1003e964     LIBCMT:undname.obj
 0003:00004965       ?fGetTemplateArgumentList@UnDecorator@@0_NA 1003e965     LIBCMT:undname.obj
 0003:00004968       ___lconv_static_null       1003e968     LIBCMT:lconv.obj
 0003:0000496c       ___lconv_static_W_null     1003e96c     LIBCMT:lconv.obj
 0003:00004988       ___pPurecall               1003e988     LIBCMT:inithelp.obj
 0003:000049a0       __stdbuf                   1003e9a0     LIBCMT:_sftbuf.obj
 0003:000049a8       ___piob                    1003e9a8     <common>
 0003:000049c0       __bufin                    1003e9c0     <common>
 0003:000059c0       __nstream                  1003f9c0     <common>
 0003:000059c4       __debugger_hook_dummy      1003f9c4     <common>
 0003:000059c8       __nhandle                  1003f9c8     <common>
 0003:000059e0       ___pioinfo                 1003f9e0     <common>
 0003:00005ae0       ___use_sse2_mathfcns       1003fae0     <common>
 0003:00005ae4       ___env_initialized         1003fae4     <common>
 0003:00005ae8       ___onexitend               1003fae8     <common>
 0003:00005aec       ___onexitbegin             1003faec     <common>
 0003:00005af0       ___mbctype_initialized     1003faf0     <common>
 0003:00005af4       ___dyn_tls_init_callback   1003faf4     <common>
 0003:00005af8       ___sse2_available          1003faf8     <common>
 0003:00005afc       __acmdln                   1003fafc     <common>

 entry point at        0001:00022a69

 Static symbols

 0001:0000498e       __catch$?EnsureDplayx@ModifyWeaponPacket@@AAEXH@Z$0 1000598e f   MultiGameWeaponID.obj
 0001:00005430       __catch$?InitDDDTA@CDDDTA@@AAEXXZ$0 10006430 f   dddta.obj
 0001:0000df78       __catch$?LoadIniRegSetting@TADRConfig@@AAEXPAE@Z$4 1000ef78 f   TAConfig.obj
 0001:0001aada       __catch$?reserve@?$vector@PADV?$allocator@PAD@std@@@std@@QAEXI@Z$0 1001bada f i whiteboard.obj
 0001:0001aada       __catch$?reserve@?$vector@PAVGraphicElement@@V?$allocator@PAVGraphicElement@@@std@@@std@@QAEXI@Z$0 1001bada f i whiteboard.obj
 0001:0001aada       __catch$?reserve@?$vector@PAVRegDword@@V?$allocator@PAVRegDword@@@std@@@std@@QAEXI@Z$0 1001bada f i whiteboard.obj
 0001:0001aada       __catch$?reserve@?$vector@PAVRegString@@V?$allocator@PAVRegString@@@std@@@std@@QAEXI@Z$0 1001bada f i whiteboard.obj
 0001:0001d9d8       __catch$?MoveTextElement@CElementHandler@@QAEPAVGraphicElement@@PAV2@HH@Z$0 1001e9d8 f   ElementHandler.obj
 0001:0001df3c       __catch$?_Buynode@?$_List_val@PAVGraphicElement@@V?$allocator@PAVGraphicElement@@@std@@@std@@QAEPAU_Node@?$_List_nod@PAVGraphicElement@@V?$allocator@PAVGraphicElement@@@std@@@2@PAU342@0ABQAVGraphicElement@@@Z$0 1001ef3c f i ElementHandler.obj
 0001:0001e29b       ?CatchGuardHandler@@YA?AW4_EXCEPTION_DISPOSITION@@PAUEHExceptionRecord@@PAUCatchGuardRN@@PAX2@Z 1001f29b f   LIBCMT:_trnsctrl_.obj
 0001:0001e3a5       ?TranslatorGuardHandler@@YA?AW4_EXCEPTION_DISPOSITION@@PAUEHExceptionRecord@@PAUTranslatorGuardRN@@PAX2@Z 1001f3a5 f   LIBCMT:_trnsctrl_.obj
 0001:0001edf2       ?_store_str@@YAXPADPAPADPAI@Z 1001fdf2 f   LIBCMT:strftime.obj
 0001:0001ee12       ?_store_num@@YAXHHPAPADPAII@Z 1001fe12 f   LIBCMT:strftime.obj
 0001:0001ee8d       ?_expandtime@@YAHPAUlocaleinfo_struct@@DPBUtm@@PAPADPAIPAU__lc_time_data@@I@Z 1001fe8d f   LIBCMT:strftime.obj
 0001:0001f245       ?_store_winword@@YAHPAUlocaleinfo_struct@@HPBUtm@@PAPADPAIPAU__lc_time_data@@@Z 10020245 f   LIBCMT:strftime.obj
 0001:00021d8d       ?strtoxl@@YAKPAUlocaleinfo_struct@@PBDPAPBDHH@Z 10022d8d f   LIBCMT:strtol.obj
 0001:000220c0       ?_strupr_s_l_stat@@YAHPADIPAUlocaleinfo_struct@@@Z 100230c0 f   LIBCMT:strupr.obj
 0001:00022973       ___DllMainCRTStartup       10023973 f   LIBCMT:dllcrt0.obj
 0001:00022a8c       __onexit_nolock            10023a8c f   LIBCMT:onexit.obj
 0001:00022db9       ?ExFilterRethrow@@YAHPAU_EXCEPTION_POINTERS@@@Z 10023db9 f   LIBCMT:frame.obj
 0001:00022e7c       ?IsInExceptionSpec@@YAEPAUEHExceptionRecord@@PBU_s_ESTypeList@@@Z 10023e7c f   LIBCMT:frame.obj
 0001:00022ef7       ?CallUnexpected@@YAXPBU_s_ESTypeList@@@Z 10023ef7 f   LIBCMT:frame.obj
 0001:00022f28       __catch$?CallUnexpected@@YAXPBU_s_ESTypeList@@@Z$0 10023f28 f   LIBCMT:frame.obj
 0001:00022f40       ?CallCatchBlock@@YAPAXPAUEHExceptionRecord@@PAUEHRegistrationNode@@PAU_CONTEXT@@PBU_s_FuncInfo@@PAXHK@Z 10023f40 f   LIBCMT:frame.obj
 0001:000232ed       ?CatchIt@@YAXPAUEHExceptionRecord@@PAUEHRegistrationNode@@PAU_CONTEXT@@PAXPBU_s_FuncInfo@@PBU_s_HandlerType@@PBU_s_CatchableType@@PBU_s_TryBlockMapEntry@@H1E@Z 100242ed f   LIBCMT:frame.obj
 0001:0002335b       ?FindHandlerForForeignException@@YAXPAUEHExceptionRecord@@PAUEHRegistrationNode@@PAU_CONTEXT@@PAXPBU_s_FuncInfo@@HH1@Z 1002435b f   LIBCMT:frame.obj
 0001:00023462       ?FindHandler@@YAXPAUEHExceptionRecord@@PAUEHRegistrationNode@@PAU_CONTEXT@@PAXPBU_s_FuncInfo@@EH1@Z 10024462 f   LIBCMT:frame.obj
 0001:000240a4       ?DebuggerProbe@@YAHK@Z     100250a4 f   LIBCMT:_error_.obj
 0001:000240f4       ?DebuggerRuntime@@YAHKHPAXPB_W@Z 100250f4 f   LIBCMT:_error_.obj
 0001:00024156       ?failwithmessage@@YAXPAXHHPBD@Z 10025156 f   LIBCMT:_error_.obj
 0001:00024430       __unwind_handler4          10025430 f   LIBCMT:exsup4.obj
 0001:000247ba       __shift                    100257ba f   LIBCMT:cvt.obj
 0001:000247ff       __cftoe2_l                 100257ff f   LIBCMT:cvt.obj
 0001:00024dbd       __cftof2_l                 10025dbd f   LIBCMT:cvt.obj
 0001:00025660       ?CPtoLCID@@YAHH@Z          10026660 f   LIBCMT:mbctype.obj
 0001:0002568f       ?setSBCS@@YAXPAUthreadmbcinfostruct@@@Z 1002668f f   LIBCMT:mbctype.obj
 0001:000256f3       ?setSBUpLow@@YAXPAUthreadmbcinfostruct@@@Z 100266f3 f   LIBCMT:mbctype.obj
 0001:00025927       ?getSystemCP@@YAHH@Z       10026927 f   LIBCMT:mbctype.obj
 0001:0002624d       __tzset_nolock             1002724d f   LIBCMT:tzset.obj
 0001:00026560       _cvtdate                   10027560 f   LIBCMT:tzset.obj
 0001:00026757       __isindst_nolock           10027757 f   LIBCMT:tzset.obj
 0001:00026e98       _write_char                10027e98 f   LIBCMT:outputs.obj
 0001:00026ecb       _write_string              10027ecb f   LIBCMT:outputs.obj
 0001:00027b0f       ?x_ismbbtype_l@@YAHPAUlocaleinfo_struct@@IHH@Z 10028b0f f   LIBCMT:ismbbyte.obj
 0001:00027c2f       ?__crtLCMapStringA_stat@@YAHPAUlocaleinfo_struct@@KKPBDHPADHHH@Z 10028c2f f   LIBCMT:a_map.obj
 0001:00028089       _doexit                    10029089 f   LIBCMT:crt0dat.obj
 0001:00028f3d       _parse_cmdline             10029f3d f   LIBCMT:stdargv.obj
 0001:00029700       __unwind_handler           1002a700 f   LIBCMT:exsup.obj
 0001:0002981f       ?GetPdbDll@@YAPAUHINSTANCE__@@XZ 1002a81f f   LIBCMT:_pdblkup_.obj
 0001:0002b0b5       ?__crtGetStringTypeA_stat@@YAHPAUlocaleinfo_struct@@KPBDHPAGHHH@Z 1002c0b5 f   LIBCMT:a_str.obj
 0001:0002ba2e       _siglookup                 1002ca2e f   LIBCMT:winsig.obj
 0001:0002db53       __hw_cw                    1002eb53 f   LIBCMT:_ieee87_.obj
 0001:0002dbe1       ___hw_cw_sse2              1002ebe1 f   LIBCMT:_ieee87_.obj
 0001:0002e406       _flsall                    1002f406 f   LIBCMT:fflush.obj
 0001:0002f157       ?__crtCompareStringA_stat@@YAHPAUlocaleinfo_struct@@KKPBDH1HH@Z 10030157 f   LIBCMT:a_cmp.obj
 0001:0002f4f1       _findenv                   100304f1 f   LIBCMT:setenv.obj
 0001:0002f543       _copy_environ              10030543 f   LIBCMT:setenv.obj
 0001:0002fc00       __unwindfunclet$?AddtionInit@@YGHPAUtagInlineX86StackBuffer@@@Z$0 10030c00 f   ddraw.obj
 0001:0002fc0b       __unwindfunclet$?AddtionInit@@YGHPAUtagInlineX86StackBuffer@@@Z$1 10030c0b f   ddraw.obj
 0001:0002fc16       __unwindfunclet$?AddtionInit@@YGHPAUtagInlineX86StackBuffer@@@Z$2 10030c16 f   ddraw.obj
 0001:0002fc21       __unwindfunclet$?AddtionInit@@YGHPAUtagInlineX86StackBuffer@@@Z$3 10030c21 f   ddraw.obj
 0001:0002fc2c       __ehhandler$?AddtionInit@@YGHPAUtagInlineX86StackBuffer@@@Z 10030c2c f   ddraw.obj
 0001:0002fc50       __unwindfunclet$_DllMain@12$0 10030c50 f   ddraw.obj
 0001:0002fc5b       __ehhandler$_DllMain@12    10030c5b f   ddraw.obj
 0001:0002fc80       __unwindfunclet$?DirectDrawCreate@@YGJPAU_GUID@@PAPAUIDirectDraw@@PAUIUnknown@@@Z$0 10030c80 f   ddraw.obj
 0001:0002fc8b       __ehhandler$?DirectDrawCreate@@YGJPAU_GUID@@PAPAUIDirectDraw@@PAUIUnknown@@@Z 10030c8b f   ddraw.obj
 0001:0002fcb0       __unwindfunclet$??1ModifyHook@@QAE@XZ$0 10030cb0 f   ModifyHook.obj
 0001:0002fcb8       __ehhandler$??1ModifyHook@@QAE@XZ 10030cb8 f   ModifyHook.obj
 0001:0002fce0       __unwindfunclet$?CreateSurface@IDDraw@@UAGJPAU_DDSURFACEDESC@@PAPAUIDirectDrawSurface@@PAUIUnknown@@@Z$0 10030ce0 f   iddraw.obj
 0001:0002fceb       __ehhandler$?CreateSurface@IDDraw@@UAGJPAU_DDSURFACEDESC@@PAPAUIDirectDrawSurface@@PAUIUnknown@@@Z 10030ceb f   iddraw.obj
 0001:0002fd10       __unwindfunclet$??0IDDrawSurface@@QAE@PAUIDirectDrawSurface@@_NHH@Z$0 10030d10 f   iddrawsurface.obj
 0001:0002fd1b       __unwindfunclet$??0IDDrawSurface@@QAE@PAUIDirectDrawSurface@@_NHH@Z$1 10030d1b f   iddrawsurface.obj
 0001:0002fd26       __unwindfunclet$??0IDDrawSurface@@QAE@PAUIDirectDrawSurface@@_NHH@Z$2 10030d26 f   iddrawsurface.obj
 0001:0002fd31       __unwindfunclet$??0IDDrawSurface@@QAE@PAUIDirectDrawSurface@@_NHH@Z$3 10030d31 f   iddrawsurface.obj
 0001:0002fd3c       __unwindfunclet$??0IDDrawSurface@@QAE@PAUIDirectDrawSurface@@_NHH@Z$4 10030d3c f   iddrawsurface.obj
 0001:0002fd47       __unwindfunclet$??0IDDrawSurface@@QAE@PAUIDirectDrawSurface@@_NHH@Z$5 10030d47 f   iddrawsurface.obj
 0001:0002fd52       __unwindfunclet$??0IDDrawSurface@@QAE@PAUIDirectDrawSurface@@_NHH@Z$6 10030d52 f   iddrawsurface.obj
 0001:0002fd5d       __unwindfunclet$??0IDDrawSurface@@QAE@PAUIDirectDrawSurface@@_NHH@Z$7 10030d5d f   iddrawsurface.obj
 0001:0002fd68       __unwindfunclet$??0IDDrawSurface@@QAE@PAUIDirectDrawSurface@@_NHH@Z$8 10030d68 f   iddrawsurface.obj
 0001:0002fd73       __unwindfunclet$??0IDDrawSurface@@QAE@PAUIDirectDrawSurface@@_NHH@Z$9 10030d73 f   iddrawsurface.obj
 0001:0002fd7e       __ehhandler$??0IDDrawSurface@@QAE@PAUIDirectDrawSurface@@_NHH@Z 10030d7e f   iddrawsurface.obj
 0001:0002fda0       __unwindfunclet$?ScreenShot@IDDrawSurface@@QAEXXZ$0 10030da0 f   iddrawsurface.obj
 0001:0002fdab       __ehhandler$?ScreenShot@IDDrawSurface@@QAEXXZ 10030dab f   iddrawsurface.obj
 0001:0002fde0       __unwindfunclet$?ModifyRoutine@ModifyWeaponPacket@@AAEXH@Z$0 10030de0 f   MultiGameWeaponID.obj
 0001:0002fdeb       __ehhandler$?ModifyRoutine@ModifyWeaponPacket@@AAEXH@Z 10030deb f   MultiGameWeaponID.obj
 0001:0002fe10       __unwindfunclet$?EnsureDplayx@ModifyWeaponPacket@@AAEXH@Z$2 10030e10 f   MultiGameWeaponID.obj
 0001:0002fe1b       __unwindfunclet$?EnsureDplayx@ModifyWeaponPacket@@AAEXH@Z$3 10030e1b f   MultiGameWeaponID.obj
 0001:0002fe26       __unwindfunclet$?EnsureDplayx@ModifyWeaponPacket@@AAEXH@Z$4 10030e26 f   MultiGameWeaponID.obj
 0001:0002fe31       __unwindfunclet$?EnsureDplayx@ModifyWeaponPacket@@AAEXH@Z$5 10030e31 f   MultiGameWeaponID.obj
 0001:0002fe3c       __unwindfunclet$?EnsureDplayx@ModifyWeaponPacket@@AAEXH@Z$6 10030e3c f   MultiGameWeaponID.obj
 0001:0002fe47       __unwindfunclet$?EnsureDplayx@ModifyWeaponPacket@@AAEXH@Z$7 10030e47 f   MultiGameWeaponID.obj
 0001:0002fe52       __unwindfunclet$?EnsureDplayx@ModifyWeaponPacket@@AAEXH@Z$8 10030e52 f   MultiGameWeaponID.obj
 0001:0002fe5d       __unwindfunclet$?EnsureDplayx@ModifyWeaponPacket@@AAEXH@Z$9 10030e5d f   MultiGameWeaponID.obj
 0001:0002fe68       __unwindfunclet$?EnsureDplayx@ModifyWeaponPacket@@AAEXH@Z$10 10030e68 f   MultiGameWeaponID.obj
 0001:0002fe73       __ehhandler$?EnsureDplayx@ModifyWeaponPacket@@AAEXH@Z 10030e73 f   MultiGameWeaponID.obj
 0001:0002fea0       __unwindfunclet$?FeaturePacket@ModifyWeaponPacket@@AAEXH@Z$0 10030ea0 f   MultiGameWeaponID.obj
 0001:0002feab       __unwindfunclet$?FeaturePacket@ModifyWeaponPacket@@AAEXH@Z$1 10030eab f   MultiGameWeaponID.obj
 0001:0002feb6       __ehhandler$?FeaturePacket@ModifyWeaponPacket@@AAEXH@Z 10030eb6 f   MultiGameWeaponID.obj
 0001:0002fee0       __unwindfunclet$??0CDDDTA@@QAE@XZ$0 10030ee0 f   dddta.obj
 0001:0002feeb       __unwindfunclet$??0CDDDTA@@QAE@XZ$1 10030eeb f   dddta.obj
 0001:0002fef6       __ehhandler$??0CDDDTA@@QAE@XZ 10030ef6 f   dddta.obj
 0001:0002ff20       __unwindfunclet$??1CDDDTA@@QAE@XZ$0 10030f20 f   dddta.obj
 0001:0002ff2b       __ehhandler$??1CDDDTA@@QAE@XZ 10030f2b f   dddta.obj
 0001:0002ff50       __ehhandler$?InitDDDTA@CDDDTA@@AAEXXZ 10030f50 f   dddta.obj
 0001:0002ff70       __unwindfunclet$?RestoreAllSharedTAMem@CDDDTA@@AAEXXZ$0 10030f70 f   dddta.obj
 0001:0002ff78       __unwindfunclet$?RestoreAllSharedTAMem@CDDDTA@@AAEXXZ$1 10030f78 f   dddta.obj
 0001:0002ff80       __unwindfunclet$?RestoreAllSharedTAMem@CDDDTA@@AAEXXZ$6 10030f80 f   dddta.obj
 0001:0002ff88       __unwindfunclet$?RestoreAllSharedTAMem@CDDDTA@@AAEXXZ$7 10030f88 f   dddta.obj
 0001:0002ff90       __unwindfunclet$?RestoreAllSharedTAMem@CDDDTA@@AAEXXZ$12 10030f90 f   dddta.obj
 0001:0002ff98       __unwindfunclet$?RestoreAllSharedTAMem@CDDDTA@@AAEXXZ$13 10030f98 f   dddta.obj
 0001:0002ffa0       __unwindfunclet$?RestoreAllSharedTAMem@CDDDTA@@AAEXXZ$18 10030fa0 f   dddta.obj
 0001:0002ffab       __unwindfunclet$?RestoreAllSharedTAMem@CDDDTA@@AAEXXZ$19 10030fab f   dddta.obj
 0001:0002ffb6       __unwindfunclet$?RestoreAllSharedTAMem@CDDDTA@@AAEXXZ$24 10030fb6 f   dddta.obj
 0001:0002ffc1       __unwindfunclet$?RestoreAllSharedTAMem@CDDDTA@@AAEXXZ$25 10030fc1 f   dddta.obj
 0001:0002ffcc       __unwindfunclet$?RestoreAllSharedTAMem@CDDDTA@@AAEXXZ$30 10030fcc f   dddta.obj
 0001:0002ffd7       __unwindfunclet$?RestoreAllSharedTAMem@CDDDTA@@AAEXXZ$31 10030fd7 f   dddta.obj
 0001:0002ffe2       __ehhandler$?RestoreAllSharedTAMem@CDDDTA@@AAEXXZ 10030fe2 f   dddta.obj
 0001:00030000       __unwindfunclet$??1?$deque@PAVGraphicElement@@V?$allocator@PAVGraphicElement@@@std@@@std@@QAE@XZ$0 10031000 f   dddta.obj
 0001:00030000       __unwindfunclet$??1?$deque@UTAShareMemStruct@CDDDTA@@V?$allocator@UTAShareMemStruct@CDDDTA@@@std@@@std@@QAE@XZ$0 10031000 f   dddta.obj
 0001:00030000       __unwindfunclet$??1?$deque@UMMHS@AlliesWhiteboard@@V?$allocator@UMMHS@AlliesWhiteboard@@@std@@@std@@QAE@XZ$0 10031000 f   dddta.obj
 0001:00030008       __unwindfunclet$??1?$deque@UMMHS@AlliesWhiteboard@@V?$allocator@UMMHS@AlliesWhiteboard@@@std@@@std@@QAE@XZ$1 10031008 f   dddta.obj
 0001:00030008       __unwindfunclet$??1?$deque@UTAShareMemStruct@CDDDTA@@V?$allocator@UTAShareMemStruct@CDDDTA@@@std@@@std@@QAE@XZ$1 10031008 f   dddta.obj
 0001:00030008       __unwindfunclet$??1?$deque@PAVGraphicElement@@V?$allocator@PAVGraphicElement@@@std@@@std@@QAE@XZ$1 10031008 f   dddta.obj
 0001:00030010       __ehhandler$??1?$deque@PAVGraphicElement@@V?$allocator@PAVGraphicElement@@@std@@@std@@QAE@XZ 10031010 f   dddta.obj
 0001:00030010       __ehhandler$??1?$deque@UMMHS@AlliesWhiteboard@@V?$allocator@UMMHS@AlliesWhiteboard@@@std@@@std@@QAE@XZ 10031010 f   dddta.obj
 0001:00030010       __ehhandler$??1?$deque@UTAShareMemStruct@CDDDTA@@V?$allocator@UTAShareMemStruct@CDDDTA@@@std@@@std@@QAE@XZ 10031010 f   dddta.obj
 0001:00030030       __unwindfunclet$??0?$_Deque_val@PAVGraphicElement@@V?$allocator@PAVGraphicElement@@@std@@@std@@QAE@V?$allocator@PAVGraphicElement@@@1@@Z$0 10031030 f   dddta.obj
 0001:00030030       __unwindfunclet$??0?$_Deque_val@UMMHS@AlliesWhiteboard@@V?$allocator@UMMHS@AlliesWhiteboard@@@std@@@std@@QAE@V?$allocator@UMMHS@AlliesWhiteboard@@@1@@Z$0 10031030 f   dddta.obj
 0001:00030030       __unwindfunclet$??0?$_Deque_val@UTAShareMemStruct@CDDDTA@@V?$allocator@UTAShareMemStruct@CDDDTA@@@std@@@std@@QAE@V?$allocator@UTAShareMemStruct@CDDDTA@@@1@@Z$0 10031030 f   dddta.obj
 0001:00030038       __ehhandler$??0?$_Deque_val@UTAShareMemStruct@CDDDTA@@V?$allocator@UTAShareMemStruct@CDDDTA@@@std@@@std@@QAE@V?$allocator@UTAShareMemStruct@CDDDTA@@@1@@Z 10031038 f   dddta.obj
 0001:00030038       __ehhandler$??0?$_Deque_val@PAVGraphicElement@@V?$allocator@PAVGraphicElement@@@std@@@std@@QAE@V?$allocator@PAVGraphicElement@@@1@@Z 10031038 f   dddta.obj
 0001:00030038       __ehhandler$??0?$_Deque_val@UMMHS@AlliesWhiteboard@@V?$allocator@UMMHS@AlliesWhiteboard@@@std@@@std@@QAE@V?$allocator@UMMHS@AlliesWhiteboard@@@1@@Z 10031038 f   dddta.obj
 0001:00030060       __unwindfunclet$??0Dialog@@QAE@XZ$0 10031060 f   dialog.obj
 0001:0003006e       __unwindfunclet$??0Dialog@@QAE@XZ$1 1003106e f   dialog.obj
 0001:0003007c       __ehhandler$??0Dialog@@QAE@XZ 1003107c f   dialog.obj
 0001:000300b0       __unwindfunclet$??0TADRConfig@@QAE@XZ$0 100310b0 f   TAConfig.obj
 0001:000300c1       __unwindfunclet$??0TADRConfig@@QAE@XZ$1 100310c1 f   TAConfig.obj
 0001:000300d2       __ehhandler$??0TADRConfig@@QAE@XZ 100310d2 f   TAConfig.obj
 0001:00030100       __unwindfunclet$??1TADRConfig@@QAE@XZ$0 10031100 f   TAConfig.obj
 0001:0003010e       __unwindfunclet$??1TADRConfig@@QAE@XZ$1 1003110e f   TAConfig.obj
 0001:0003011c       __unwindfunclet$??1TADRConfig@@QAE@XZ$2 1003111c f   TAConfig.obj
 0001:00030124       __unwindfunclet$??1TADRConfig@@QAE@XZ$3 10031124 f   TAConfig.obj
 0001:0003012c       __ehhandler$??1TADRConfig@@QAE@XZ 1003112c f   TAConfig.obj
 0001:00030150       __unwindfunclet$?LoadIniRegSetting@TADRConfig@@AAEXPAE@Z$6 10031150 f   TAConfig.obj
 0001:0003015e       __unwindfunclet$?LoadIniRegSetting@TADRConfig@@AAEXPAE@Z$7 1003115e f   TAConfig.obj
 0001:0003016c       __ehhandler$?LoadIniRegSetting@TADRConfig@@AAEXPAE@Z 1003116c f   TAConfig.obj
 0001:000301a0       __unwindfunclet$??0UnicodeSupport@@QAE@PBDKK@Z$0 100311a0 f   UnicodeSupport.obj
 0001:000301ae       __unwindfunclet$??0UnicodeSupport@@QAE@PBDKK@Z$1 100311ae f   UnicodeSupport.obj
 0001:000301b9       __unwindfunclet$??0UnicodeSupport@@QAE@PBDKK@Z$2 100311b9 f   UnicodeSupport.obj
 0001:000301c4       __unwindfunclet$??0UnicodeSupport@@QAE@PBDKK@Z$3 100311c4 f   UnicodeSupport.obj
 0001:000301cf       __unwindfunclet$??0UnicodeSupport@@QAE@PBDKK@Z$4 100311cf f   UnicodeSupport.obj
 0001:000301da       __unwindfunclet$??0UnicodeSupport@@QAE@PBDKK@Z$5 100311da f   UnicodeSupport.obj
 0001:000301e5       __unwindfunclet$??0UnicodeSupport@@QAE@PBDKK@Z$6 100311e5 f   UnicodeSupport.obj
 0001:000301f0       __unwindfunclet$??0UnicodeSupport@@QAE@PBDKK@Z$7 100311f0 f   UnicodeSupport.obj
 0001:000301fb       __unwindfunclet$??0UnicodeSupport@@QAE@PBDKK@Z$8 100311fb f   UnicodeSupport.obj
 0001:00030206       __ehhandler$??0UnicodeSupport@@QAE@PBDKK@Z 10031206 f   UnicodeSupport.obj
 0001:00030230       __unwindfunclet$??0LimitCrack@@QAE@XZ$0 10031230 f   LimitCrack.obj
 0001:0003023e       __unwindfunclet$??0LimitCrack@@QAE@XZ$1 1003123e f   LimitCrack.obj
 0001:0003024c       __unwindfunclet$??0LimitCrack@@QAE@XZ$2 1003124c f   LimitCrack.obj
 0001:0003025a       __unwindfunclet$??0LimitCrack@@QAE@XZ$3 1003125a f   LimitCrack.obj
 0001:00030268       __unwindfunclet$??0LimitCrack@@QAE@XZ$4 10031268 f   LimitCrack.obj
 0001:00030276       __unwindfunclet$??0LimitCrack@@QAE@XZ$5 10031276 f   LimitCrack.obj
 0001:00030284       __unwindfunclet$??0LimitCrack@@QAE@XZ$6 10031284 f   LimitCrack.obj
 0001:00030292       __ehhandler$??0LimitCrack@@QAE@XZ 10031292 f   LimitCrack.obj
 0001:000302c0       __unwindfunclet$??0IncreaseAISearchMapEntriesLimit@@QAE@K@Z$0 100312c0 f   LimitCrack.obj
 0001:000302cb       __ehhandler$??0IncreaseAISearchMapEntriesLimit@@QAE@K@Z 100312cb f   LimitCrack.obj
 0001:000302f0       __unwindfunclet$?WriteWeaponAryPtr@IncreaseWeaponTypeLimit@@AAEPAXPAPAX@Z$0 100312f0 f   LimitCrack.obj
 0001:000302fb       __unwindfunclet$?WriteWeaponAryPtr@IncreaseWeaponTypeLimit@@AAEPAXPAPAX@Z$1 100312fb f   LimitCrack.obj
 0001:00030306       __ehhandler$?WriteWeaponAryPtr@IncreaseWeaponTypeLimit@@AAEPAXPAPAX@Z 10031306 f   LimitCrack.obj
 0001:00030330       __unwindfunclet$?WriteWeaponAryLen@IncreaseWeaponTypeLimit@@AAEKK@Z$0 10031330 f   LimitCrack.obj
 0001:0003033b       __ehhandler$?WriteWeaponAryLen@IncreaseWeaponTypeLimit@@AAEKK@Z 1003133b f   LimitCrack.obj
 0001:00030360       __unwindfunclet$?WeaponType_IdLimit@IncreaseWeaponTypeLimit@@AAEXXZ$0 10031360 f   LimitCrack.obj
 0001:0003036b       __unwindfunclet$?WeaponType_IdLimit@IncreaseWeaponTypeLimit@@AAEXXZ$1 1003136b f   LimitCrack.obj
 0001:00030376       __ehhandler$?WeaponType_IdLimit@IncreaseWeaponTypeLimit@@AAEXXZ 10031376 f   LimitCrack.obj
 0001:000303a0       __unwindfunclet$?WriteNewLimit@IncreaseUnitTypeLimit@@AAEXK@Z$0 100313a0 f   LimitCrack.obj
 0001:000303ab       __unwindfunclet$?WriteNewLimit@IncreaseUnitTypeLimit@@AAEXK@Z$1 100313ab f   LimitCrack.obj
 0001:000303b9       __unwindfunclet$?WriteNewLimit@IncreaseUnitTypeLimit@@AAEXK@Z$2 100313b9 f   LimitCrack.obj
 0001:000303c7       __unwindfunclet$?WriteNewLimit@IncreaseUnitTypeLimit@@AAEXK@Z$3 100313c7 f   LimitCrack.obj
 0001:000303d5       __unwindfunclet$?WriteNewLimit@IncreaseUnitTypeLimit@@AAEXK@Z$4 100313d5 f   LimitCrack.obj
 0001:000303e3       __unwindfunclet$?WriteNewLimit@IncreaseUnitTypeLimit@@AAEXK@Z$5 100313e3 f   LimitCrack.obj
 0001:000303f1       __unwindfunclet$?WriteNewLimit@IncreaseUnitTypeLimit@@AAEXK@Z$6 100313f1 f   LimitCrack.obj
 0001:000303ff       __unwindfunclet$?WriteNewLimit@IncreaseUnitTypeLimit@@AAEXK@Z$7 100313ff f   LimitCrack.obj
 0001:0003040d       __unwindfunclet$?WriteNewLimit@IncreaseUnitTypeLimit@@AAEXK@Z$8 1003140d f   LimitCrack.obj
 0001:0003041b       __unwindfunclet$?WriteNewLimit@IncreaseUnitTypeLimit@@AAEXK@Z$9 1003141b f   LimitCrack.obj
 0001:00030429       __unwindfunclet$?WriteNewLimit@IncreaseUnitTypeLimit@@AAEXK@Z$10 10031429 f   LimitCrack.obj
 0001:00030437       __ehhandler$?WriteNewLimit@IncreaseUnitTypeLimit@@AAEXK@Z 10031437 f   LimitCrack.obj
 0001:00030460       __unwindfunclet$?WriteNewLimit@IncreaseCompositeBuf@@AAEXKK@Z$0 10031460 f   LimitCrack.obj
 0001:0003046b       __ehhandler$?WriteNewLimit@IncreaseCompositeBuf@@AAEXKK@Z 1003146b f   LimitCrack.obj
 0001:00030490       __unwindfunclet$?SetNewLimit@IncreaseSfxLimit@@AAEXKK@Z$0 10031490 f   LimitCrack.obj
 0001:0003049b       __unwindfunclet$?SetNewLimit@IncreaseSfxLimit@@AAEXKK@Z$1 1003149b f   LimitCrack.obj
 0001:000304a6       __ehhandler$?SetNewLimit@IncreaseSfxLimit@@AAEXKK@Z 100314a6 f   LimitCrack.obj
 0001:000304d0       __unwindfunclet$??0AlliesWhiteboard@@QAE@XZ$0 100314d0 f   whiteboard.obj
 0001:000304de       __unwindfunclet$??0AlliesWhiteboard@@QAE@XZ$1 100314de f   whiteboard.obj
 0001:000304ec       __unwindfunclet$??0AlliesWhiteboard@@QAE@XZ$2 100314ec f   whiteboard.obj
 0001:000304fa       __ehhandler$??0AlliesWhiteboard@@QAE@XZ 100314fa f   whiteboard.obj
 0001:00030520       __unwindfunclet$??1AlliesWhiteboard@@QAE@XZ$0 10031520 f   whiteboard.obj
 0001:0003052e       __unwindfunclet$??1AlliesWhiteboard@@QAE@XZ$1 1003152e f   whiteboard.obj
 0001:0003053c       __unwindfunclet$??1AlliesWhiteboard@@QAE@XZ$2 1003153c f   whiteboard.obj
 0001:0003054a       __ehhandler$??1AlliesWhiteboard@@QAE@XZ 1003154a f   whiteboard.obj
 0001:00030570       __unwindfunclet$?LockBlit@AlliesWhiteboard@@QAEXPADH@Z$0 10031570 f   whiteboard.obj
 0001:00030578       __unwindfunclet$?LockBlit@AlliesWhiteboard@@QAEXPADH@Z$1 10031578 f   whiteboard.obj
 0001:00030580       __unwindfunclet$?LockBlit@AlliesWhiteboard@@QAEXPADH@Z$3 10031580 f   whiteboard.obj
 0001:00030588       __unwindfunclet$?LockBlit@AlliesWhiteboard@@QAEXPADH@Z$4 10031588 f   whiteboard.obj
 0001:00030590       __ehhandler$?LockBlit@AlliesWhiteboard@@QAEXPADH@Z 10031590 f   whiteboard.obj
 0001:000305b0       __unwindfunclet$?Message@AlliesWhiteboard@@QAE_NPAUHWND__@@IIJ@Z$0 100315b0 f   whiteboard.obj
 0001:000305bb       __unwindfunclet$?Message@AlliesWhiteboard@@QAE_NPAUHWND__@@IIJ@Z$1 100315bb f   whiteboard.obj
 0001:000305c6       __ehhandler$?Message@AlliesWhiteboard@@QAE_NPAUHWND__@@IIJ@Z 100315c6 f   whiteboard.obj
 0001:000305f0       __unwindfunclet$?TextInputKeyDown@AlliesWhiteboard@@AAEXH@Z$0 100315f0 f   whiteboard.obj
 0001:000305fb       __ehhandler$?TextInputKeyDown@AlliesWhiteboard@@AAEXH@Z 100315fb f   whiteboard.obj
 0001:00030620       __unwindfunclet$??0GraphicText@@QAE@HHPADD@Z$0 10031620 f   whiteboard.obj
 0001:00030620       __unwindfunclet$??0GraphicTextEdited@@QAE@HHPADD@Z$0 10031620 f   whiteboard.obj
 0001:00030628       __ehhandler$??0GraphicTextEdited@@QAE@HHPADD@Z 10031628 f   whiteboard.obj
 0001:00030628       __ehhandler$??0GraphicText@@QAE@HHPADD@Z 10031628 f   whiteboard.obj
 0001:00030650       __unwindfunclet$?AddTextMarker@AlliesWhiteboard@@AAEXXZ$0 10031650 f   whiteboard.obj
 0001:0003065b       __unwindfunclet$?AddTextMarker@AlliesWhiteboard@@AAEXXZ$1 1003165b f   whiteboard.obj
 0001:00030666       __ehhandler$?AddTextMarker@AlliesWhiteboard@@AAEXXZ 10031666 f   whiteboard.obj
 0001:00030690       __unwindfunclet$?DrawMarkers@AlliesWhiteboard@@AAEXPAUIDirectDrawSurface@@@Z$0 10031690 f   whiteboard.obj
 0001:00030698       __unwindfunclet$?DrawMarkers@AlliesWhiteboard@@AAEXPAUIDirectDrawSurface@@@Z$1 10031698 f   whiteboard.obj
 0001:000306a0       __unwindfunclet$?DrawMarkers@AlliesWhiteboard@@AAEXPAUIDirectDrawSurface@@@Z$3 100316a0 f   whiteboard.obj
 0001:000306a8       __unwindfunclet$?DrawMarkers@AlliesWhiteboard@@AAEXPAUIDirectDrawSurface@@@Z$4 100316a8 f   whiteboard.obj
 0001:000306b0       __ehhandler$?DrawMarkers@AlliesWhiteboard@@AAEXPAUIDirectDrawSurface@@@Z 100316b0 f   whiteboard.obj
 0001:000306d0       __unwindfunclet$?DrawMinimapMarkers@AlliesWhiteboard@@QAEXPADH_N@Z$0 100316d0 f   whiteboard.obj
 0001:000306d8       __unwindfunclet$?DrawMinimapMarkers@AlliesWhiteboard@@QAEXPADH_N@Z$1 100316d8 f   whiteboard.obj
 0001:000306e0       __unwindfunclet$?DrawMinimapMarkers@AlliesWhiteboard@@QAEXPADH_N@Z$6 100316e0 f   whiteboard.obj
 0001:000306e8       __unwindfunclet$?DrawMinimapMarkers@AlliesWhiteboard@@QAEXPADH_N@Z$7 100316e8 f   whiteboard.obj
 0001:000306f0       __unwindfunclet$?DrawMinimapMarkers@AlliesWhiteboard@@QAEXPADH_N@Z$12 100316f0 f   whiteboard.obj
 0001:000306f8       __unwindfunclet$?DrawMinimapMarkers@AlliesWhiteboard@@QAEXPADH_N@Z$13 100316f8 f   whiteboard.obj
 0001:00030700       __unwindfunclet$?DrawMinimapMarkers@AlliesWhiteboard@@QAEXPADH_N@Z$18 10031700 f   whiteboard.obj
 0001:0003070b       __unwindfunclet$?DrawMinimapMarkers@AlliesWhiteboard@@QAEXPADH_N@Z$19 1003170b f   whiteboard.obj
 0001:00030716       __unwindfunclet$?DrawMinimapMarkers@AlliesWhiteboard@@QAEXPADH_N@Z$24 10031716 f   whiteboard.obj
 0001:00030721       __unwindfunclet$?DrawMinimapMarkers@AlliesWhiteboard@@QAEXPADH_N@Z$25 10031721 f   whiteboard.obj
 0001:0003072c       __unwindfunclet$?DrawMinimapMarkers@AlliesWhiteboard@@QAEXPADH_N@Z$30 1003172c f   whiteboard.obj
 0001:00030737       __unwindfunclet$?DrawMinimapMarkers@AlliesWhiteboard@@QAEXPADH_N@Z$31 10031737 f   whiteboard.obj
 0001:00030742       __unwindfunclet$?DrawMinimapMarkers@AlliesWhiteboard@@QAEXPADH_N@Z$36 10031742 f   whiteboard.obj
 0001:0003074d       __unwindfunclet$?DrawMinimapMarkers@AlliesWhiteboard@@QAEXPADH_N@Z$37 1003174d f   whiteboard.obj
 0001:00030758       __unwindfunclet$?DrawMinimapMarkers@AlliesWhiteboard@@QAEXPADH_N@Z$42 10031758 f   whiteboard.obj
 0001:00030763       __unwindfunclet$?DrawMinimapMarkers@AlliesWhiteboard@@QAEXPADH_N@Z$43 10031763 f   whiteboard.obj
 0001:0003076e       __unwindfunclet$?DrawMinimapMarkers@AlliesWhiteboard@@QAEXPADH_N@Z$48 1003176e f   whiteboard.obj
 0001:00030779       __unwindfunclet$?DrawMinimapMarkers@AlliesWhiteboard@@QAEXPADH_N@Z$49 10031779 f   whiteboard.obj
 0001:00030784       __unwindfunclet$?DrawMinimapMarkers@AlliesWhiteboard@@QAEXPADH_N@Z$54 10031784 f   whiteboard.obj
 0001:0003078f       __unwindfunclet$?DrawMinimapMarkers@AlliesWhiteboard@@QAEXPADH_N@Z$55 1003178f f   whiteboard.obj
 0001:0003079a       __unwindfunclet$?DrawMinimapMarkers@AlliesWhiteboard@@QAEXPADH_N@Z$60 1003179a f   whiteboard.obj
 0001:000307a5       __unwindfunclet$?DrawMinimapMarkers@AlliesWhiteboard@@QAEXPADH_N@Z$61 100317a5 f   whiteboard.obj
 0001:000307b0       __unwindfunclet$?DrawMinimapMarkers@AlliesWhiteboard@@QAEXPADH_N@Z$66 100317b0 f   whiteboard.obj
 0001:000307bb       __unwindfunclet$?DrawMinimapMarkers@AlliesWhiteboard@@QAEXPADH_N@Z$67 100317bb f   whiteboard.obj
 0001:000307c6       __ehhandler$?DrawMinimapMarkers@AlliesWhiteboard@@QAEXPADH_N@Z 100317c6 f   whiteboard.obj
 0001:000307f0       __unwindfunclet$?GetMarkers@AlliesWhiteboard@@QAEXPAUMarkerArray@@@Z$0 100317f0 f   whiteboard.obj
 0001:000307f8       __unwindfunclet$?GetMarkers@AlliesWhiteboard@@QAEXPAUMarkerArray@@@Z$1 100317f8 f   whiteboard.obj
 0001:00030800       __unwindfunclet$?GetMarkers@AlliesWhiteboard@@QAEXPAUMarkerArray@@@Z$6 10031800 f   whiteboard.obj
 0001:00030808       __unwindfunclet$?GetMarkers@AlliesWhiteboard@@QAEXPAUMarkerArray@@@Z$7 10031808 f   whiteboard.obj
 0001:00030810       __ehhandler$?GetMarkers@AlliesWhiteboard@@QAEXPAUMarkerArray@@@Z 10031810 f   whiteboard.obj
 0001:00030830       __unwindfunclet$?ReceiveMarkers@AlliesWhiteboard@@AAEXXZ$0 10031830 f   whiteboard.obj
 0001:0003083b       __ehhandler$?ReceiveMarkers@AlliesWhiteboard@@AAEXXZ 1003183b f   whiteboard.obj
 0001:00030870       __unwindfunclet$?SendMarkers@AlliesWhiteboard@@AAEXXZ$0 10031870 f   whiteboard.obj
 0001:0003087b       __unwindfunclet$?SendMarkers@AlliesWhiteboard@@AAEXXZ$3 1003187b f   whiteboard.obj
 0001:00030886       __unwindfunclet$?SendMarkers@AlliesWhiteboard@@AAEXXZ$6 10031886 f   whiteboard.obj
 0001:00030891       __unwindfunclet$?SendMarkers@AlliesWhiteboard@@AAEXXZ$9 10031891 f   whiteboard.obj
 0001:0003089c       __unwindfunclet$?SendMarkers@AlliesWhiteboard@@AAEXXZ$12 1003189c f   whiteboard.obj
 0001:000308a7       __unwindfunclet$?SendMarkers@AlliesWhiteboard@@AAEXXZ$15 100318a7 f   whiteboard.obj
 0001:000308b2       __unwindfunclet$?SendMarkers@AlliesWhiteboard@@AAEXXZ$18 100318b2 f   whiteboard.obj
 0001:000308bd       __unwindfunclet$?SendMarkers@AlliesWhiteboard@@AAEXXZ$21 100318bd f   whiteboard.obj
 0001:000308c8       __unwindfunclet$?SendMarkers@AlliesWhiteboard@@AAEXXZ$24 100318c8 f   whiteboard.obj
 0001:000308d3       __unwindfunclet$?SendMarkers@AlliesWhiteboard@@AAEXXZ$27 100318d3 f   whiteboard.obj
 0001:000308de       __unwindfunclet$?SendMarkers@AlliesWhiteboard@@AAEXXZ$30 100318de f   whiteboard.obj
 0001:000308e9       __unwindfunclet$?SendMarkers@AlliesWhiteboard@@AAEXXZ$33 100318e9 f   whiteboard.obj
 0001:000308f4       __ehhandler$?SendMarkers@AlliesWhiteboard@@AAEXXZ 100318f4 f   whiteboard.obj
 0001:00030920       __unwindfunclet$?GetTextElementAt@AlliesWhiteboard@@AAEPAVGraphicElement@@HHH@Z$0 10031920 f   whiteboard.obj
 0001:00030928       __unwindfunclet$?GetTextElementAt@AlliesWhiteboard@@AAEPAVGraphicElement@@HHH@Z$1 10031928 f   whiteboard.obj
 0001:00030930       __unwindfunclet$?GetTextElementAt@AlliesWhiteboard@@AAEPAVGraphicElement@@HHH@Z$3 10031930 f   whiteboard.obj
 0001:00030938       __unwindfunclet$?GetTextElementAt@AlliesWhiteboard@@AAEPAVGraphicElement@@HHH@Z$4 10031938 f   whiteboard.obj
 0001:00030940       __ehhandler$?GetTextElementAt@AlliesWhiteboard@@AAEPAVGraphicElement@@HHH@Z 10031940 f   whiteboard.obj
 0001:00030960       __unwindfunclet$?back@?$deque@UMMHS@AlliesWhiteboard@@V?$allocator@UMMHS@AlliesWhiteboard@@@std@@@std@@QAEAAUMMHS@AlliesWhiteboard@@XZ$0 10031960 f   whiteboard.obj
 0001:00030968       __unwindfunclet$?back@?$deque@UMMHS@AlliesWhiteboard@@V?$allocator@UMMHS@AlliesWhiteboard@@@std@@@std@@QAEAAUMMHS@AlliesWhiteboard@@XZ$1 10031968 f   whiteboard.obj
 0001:00030970       __ehhandler$?back@?$deque@UMMHS@AlliesWhiteboard@@V?$allocator@UMMHS@AlliesWhiteboard@@@std@@@std@@QAEAAUMMHS@AlliesWhiteboard@@XZ 10031970 f   whiteboard.obj
 0001:00030990       __unwindfunclet$??1?$vector@PAVRegString@@V?$allocator@PAVRegString@@@std@@@std@@QAE@XZ$0 10031990 f   whiteboard.obj
 0001:00030990       __unwindfunclet$??1?$vector@PAVGraphicElement@@V?$allocator@PAVGraphicElement@@@std@@@std@@QAE@XZ$0 10031990 f   whiteboard.obj
 0001:00030990       __unwindfunclet$??1?$vector@PAVRegDword@@V?$allocator@PAVRegDword@@@std@@@std@@QAE@XZ$0 10031990 f   whiteboard.obj
 0001:00030990       __unwindfunclet$??1?$vector@PADV?$allocator@PAD@std@@@std@@QAE@XZ$0 10031990 f   whiteboard.obj
 0001:00030998       __ehhandler$??1?$vector@PAVGraphicElement@@V?$allocator@PAVGraphicElement@@@std@@@std@@QAE@XZ 10031998 f   whiteboard.obj
 0001:00030998       __ehhandler$??1?$vector@PAVRegDword@@V?$allocator@PAVRegDword@@@std@@@std@@QAE@XZ 10031998 f   whiteboard.obj
 0001:00030998       __ehhandler$??1?$vector@PADV?$allocator@PAD@std@@@std@@QAE@XZ 10031998 f   whiteboard.obj
 0001:00030998       __ehhandler$??1?$vector@PAVRegString@@V?$allocator@PAVRegString@@@std@@@std@@QAE@XZ 10031998 f   whiteboard.obj
 0001:000309c0       __unwindfunclet$??1?$_Deque_val@UTAShareMemStruct@CDDDTA@@V?$allocator@UTAShareMemStruct@CDDDTA@@@std@@@std@@QAE@XZ$0 100319c0 f   whiteboard.obj
 0001:000309c0       __unwindfunclet$??1?$_Deque_val@PAVGraphicElement@@V?$allocator@PAVGraphicElement@@@std@@@std@@QAE@XZ$0 100319c0 f   whiteboard.obj
 0001:000309c0       __unwindfunclet$??1?$_Deque_val@UMMHS@AlliesWhiteboard@@V?$allocator@UMMHS@AlliesWhiteboard@@@std@@@std@@QAE@XZ$0 100319c0 f   whiteboard.obj
 0001:000309c8       __ehhandler$??1?$_Deque_val@UMMHS@AlliesWhiteboard@@V?$allocator@UMMHS@AlliesWhiteboard@@@std@@@std@@QAE@XZ 100319c8 f   whiteboard.obj
 0001:000309c8       __ehhandler$??1?$_Deque_val@UTAShareMemStruct@CDDDTA@@V?$allocator@UTAShareMemStruct@CDDDTA@@@std@@@std@@QAE@XZ 100319c8 f   whiteboard.obj
 0001:000309c8       __ehhandler$??1?$_Deque_val@PAVGraphicElement@@V?$allocator@PAVGraphicElement@@@std@@@std@@QAE@XZ 100319c8 f   whiteboard.obj
 0001:000309f0       __ehhandler$?reserve@?$vector@PAVRegDword@@V?$allocator@PAVRegDword@@@std@@@std@@QAEXI@Z 100319f0 f   whiteboard.obj
 0001:000309f0       __ehhandler$?reserve@?$vector@PADV?$allocator@PAD@std@@@std@@QAEXI@Z 100319f0 f   whiteboard.obj
 0001:000309f0       __ehhandler$?reserve@?$vector@PAVRegString@@V?$allocator@PAVRegString@@@std@@@std@@QAEXI@Z 100319f0 f   whiteboard.obj
 0001:000309f0       __ehhandler$?reserve@?$vector@PAVGraphicElement@@V?$allocator@PAVGraphicElement@@@std@@@std@@QAEXI@Z 100319f0 f   whiteboard.obj
 0001:00030a10       __unwindfunclet$??0ModifyHook@@QAE@IHKPAEKK@Z$0 10031a10 f   InlineHook.obj
 0001:00030a10       __unwindfunclet$??0ModifyHook@@QAE@PAEHK0KK@Z$0 10031a10 f   InlineHook.obj
 0001:00030a10       __unwindfunclet$??0InlineSingleHook@@QAE@IKHP6GHPAUtagInlineX86StackBuffer@@@Z@Z$0 10031a10 f   InlineHook.obj
 0001:00030a18       __ehhandler$??0ModifyHook@@QAE@IHKPAEKK@Z 10031a18 f   InlineHook.obj
 0001:00030a18       __ehhandler$??0InlineSingleHook@@QAE@IKHP6GHPAUtagInlineX86StackBuffer@@@Z@Z 10031a18 f   InlineHook.obj
 0001:00030a18       __ehhandler$??0ModifyHook@@QAE@PAEHK0KK@Z 10031a18 f   InlineHook.obj
 0001:00030a40       __unwindfunclet$??1InlineSingleHook@@QAE@XZ$0 10031a40 f   InlineHook.obj
 0001:00030a48       __ehhandler$??1InlineSingleHook@@QAE@XZ 10031a48 f   InlineHook.obj
 0001:00030a70       __unwindfunclet$??1CElementHandler@@UAE@XZ$0 10031a70 f   ElementHandler.obj
 0001:00030a89       __ehhandler$??1CElementHandler@@UAE@XZ 10031a89 f   ElementHandler.obj
 0001:00030ab0       __unwindfunclet$?DeleteBetween@CElementHandler@@QAEXHHHH@Z$0 10031ab0 f   ElementHandler.obj
 0001:00030ab8       __unwindfunclet$?DeleteBetween@CElementHandler@@QAEXHHHH@Z$2 10031ab8 f   ElementHandler.obj
 0001:00030ac0       __ehhandler$?DeleteBetween@CElementHandler@@QAEXHHHH@Z 10031ac0 f   ElementHandler.obj
 0001:00030ae0       __unwindfunclet$?GetArea@CElementHandler@@QAE?AV?$vector@PAVGraphicElement@@V?$allocator@PAVGraphicElement@@@std@@@std@@HHHH@Z$0 10031ae0 f   ElementHandler.obj
 0001:00030ae8       __unwindfunclet$?GetArea@CElementHandler@@QAE?AV?$vector@PAVGraphicElement@@V?$allocator@PAVGraphicElement@@@std@@@std@@HHHH@Z$3 10031ae8 f   ElementHandler.obj
 0001:00030af0       __unwindfunclet$?GetArea@CElementHandler@@QAE?AV?$vector@PAVGraphicElement@@V?$allocator@PAVGraphicElement@@@std@@@std@@HHHH@Z$1 10031af0 f   ElementHandler.obj
 0001:00030b09       __unwindfunclet$?GetArea@CElementHandler@@QAE?AV?$vector@PAVGraphicElement@@V?$allocator@PAVGraphicElement@@@std@@@std@@HHHH@Z$4 10031b09 f   ElementHandler.obj
 0001:00030b11       __ehhandler$?GetArea@CElementHandler@@QAE?AV?$vector@PAVGraphicElement@@V?$allocator@PAVGraphicElement@@@std@@@std@@HHHH@Z 10031b11 f   ElementHandler.obj
 0001:00030b30       __unwindfunclet$?MoveTextElement@CElementHandler@@QAEPAVGraphicElement@@PAV2@HH@Z$2 10031b30 f   ElementHandler.obj
 0001:00030b3b       __ehhandler$?MoveTextElement@CElementHandler@@QAEPAVGraphicElement@@PAV2@HH@Z 10031b3b f   ElementHandler.obj
 0001:00030b60       __unwindfunclet$??1?$list@PAVGraphicElement@@V?$allocator@PAVGraphicElement@@@std@@@std@@QAE@XZ$0 10031b60 f   ElementHandler.obj
 0001:00030b68       __ehhandler$??1?$list@PAVGraphicElement@@V?$allocator@PAVGraphicElement@@@std@@@std@@QAE@XZ 10031b68 f   ElementHandler.obj
 0001:00030b90       __ehhandler$?_Buynode@?$_List_val@PAVGraphicElement@@V?$allocator@PAVGraphicElement@@@std@@@std@@QAEPAU_Node@?$_List_nod@PAVGraphicElement@@V?$allocator@PAVGraphicElement@@@std@@@2@PAU342@0ABQAVGraphicElement@@@Z 10031b90 f   ElementHandler.obj
 0001:00030bab       __ehhandler$?CallUnexpected@@YAXPBU_s_ESTypeList@@@Z 10031bab f   LIBCMT:frame.obj
 0001:00030bd0       ??__Fnomem@?5???2@YAPAXI@Z@YAXXZ 10031bd0 f   LIBCMT:new.obj
